Component: ARM Compiler 5.06 update 6 (build 750) Tool: armlink [4d35ed]

==============================================================================

Section Cross References

    sys.o(i.MY_NVIC_Init) refers to sys.o(i.MY_NVIC_PriorityGroupConfig) for MY_NVIC_PriorityGroupConfig
    sys.o(i.Stm32_Clock_Init) refers to sys.o(i.Sys_Clock_Set) for Sys_Clock_Set
    sys.o(i.Stm32_Clock_Init) refers to sys.o(i.MY_NVIC_SetVectorTable) for MY_NVIC_SetVectorTable
    sys.o(i.Sys_Standby) refers to sys.o(i.WFI_SET) for WFI_SET
    startup_stm32f429xx.o(RESET) refers to startup_stm32f429xx.o(STACK) for __initial_sp
    startup_stm32f429xx.o(RESET) refers to startup_stm32f429xx.o(.text) for Reset_Handler
    startup_stm32f429xx.o(RESET) refers to mcu.o(i.TIM2_IRQHandler) for TIM2_IRQHandler
    startup_stm32f429xx.o(RESET) refers to mcu.o(i.TIM3_IRQHandler) for TIM3_IRQHandler
    startup_stm32f429xx.o(.text) refers to entry.o(.ARM.Collect$$$$00000000) for __main
    main.o(i.main) refers to mcu.o(i.McuInit) for McuInit
    main.o(i.main) refers to main.o(i.UserIoInit) for UserIoInit
    main.o(i.main) refers to sdram.o(i.SDRAM_Init) for SDRAM_Init
    main.o(i.main) refers to malloc.o(i.my_mem_init) for my_mem_init
    main.o(i.main) refers to fminit.o(i.FmMemoryInit) for FmMemoryInit
    main.o(i.main) refers to mcu.o(i.delay_ms) for delay_ms
    main.o(i.main) refers to config.o(i.ReadDefaultConfig) for ReadDefaultConfig
    main.o(i.main) refers to taskmanger.o(i.CreateTask) for CreateTask
    main.o(i.main) refers to taskmanger.o(i.ExecTask) for ExecTask
    main.o(i.main) refers to main.o(i.RunLedTask) for RunLedTask
    main.o(i.main) refers to netpro.o(i.NetPro) for NetPro
    main.o(i.main) refers to netpro.o(.data) for TASKID_NETPRO
    netpro.o(i.CreatUserPort) refers to public.o(i.BufCmp) for BufCmp
    netpro.o(i.CreatUserPort) refers to socket.o(.bss) for Net
    netpro.o(i.CreatUserPort) refers to iappro.o(i.IapDataRecv) for IapDataRecv
    netpro.o(i.CreatUserPort) refers to netpro.o(.data) for Sockets
    netpro.o(i.CreatUserPort) refers to mcu.o(.data) for SYS_TICK
    netpro.o(i.CreatUserPort) refers to netpro.o(.bss) for NetManger
    netpro.o(i.NetOnlineCheck) refers to mcu.o(i.MsTickDiff) for MsTickDiff
    netpro.o(i.NetOnlineCheck) refers to netpro.o(.bss) for NetManger
    netpro.o(i.NetOnlineCheck) refers to netpro.o(.data) for Sockets
    netpro.o(i.NetOnlineCheck) refers to socket.o(.bss) for Net
    netpro.o(i.NetOnlineCheck) refers to mcu.o(.data) for SYS_TICK
    netpro.o(i.NetPro) refers to taskmanger.o(i.SetTaskStatus) for SetTaskStatus
    netpro.o(i.NetPro) refers to w5500spi.o(i.W5500Spi_Init) for W5500Spi_Init
    netpro.o(i.NetPro) refers to socket.o(i.W5500Init) for W5500Init
    netpro.o(i.NetPro) refers to mcu.o(i.MsTickDiff) for MsTickDiff
    netpro.o(i.NetPro) refers to netpro.o(i.CreatUserPort) for CreatUserPort
    netpro.o(i.NetPro) refers to iappro.o(i.StartIap) for StartIap
    netpro.o(i.NetPro) refers to flash.o(i.AppExist) for AppExist
    netpro.o(i.NetPro) refers to flash.o(i.Jump2App) for Jump2App
    netpro.o(i.NetPro) refers to sys.o(i.Sys_Soft_Reset) for Sys_Soft_Reset
    netpro.o(i.NetPro) refers to netpro.o(.bss) for NetManger
    netpro.o(i.NetPro) refers to netpro.o(.data) for TASKID_NETPRO
    netpro.o(i.NetPro) refers to netpro.o(i.NetSendData) for NetSendData
    netpro.o(i.NetPro) refers to w5500spi.o(i.W5500GetIntIoState) for W5500GetIntIoState
    netpro.o(i.NetPro) refers to w5500spi.o(i.W5500Spi_SendByte) for W5500Spi_SendByte
    netpro.o(i.NetPro) refers to mcu.o(i.delay_ms) for delay_ms
    netpro.o(i.NetPro) refers to w5500spi.o(i.W5500SetCsValue) for W5500SetCsValue
    netpro.o(i.NetPro) refers to w5500spi.o(i.W5500SetRstValue) for W5500SetRstValue
    netpro.o(i.NetPro) refers to mcu.o(.data) for SYS_TICK
    netpro.o(i.NetPro) refers to socket.o(.bss) for Net
    netpro.o(i.NetPro) refers to iappro.o(.bss) for Iap
    netpro.o(i.NetSendData) refers to netpro.o(.data) for Sockets
    netpro.o(i.NetSendData) refers to socket.o(.bss) for Net
    netpro.o(i.TcpSocket0Recv) refers to mcu.o(.data) for SYS_TICK
    netpro.o(i.TcpSocket0Recv) refers to netpro.o(.bss) for NetManger
    netpro.o(i.TcpSocket1Recv) refers to mcu.o(.data) for SYS_TICK
    netpro.o(i.TcpSocket1Recv) refers to netpro.o(.bss) for NetManger
    config.o(i.ConfigCheck) refers to fminit.o(i.FramReadBurstByte) for FramReadBurstByte
    config.o(i.ConfigCheck) refers to crcmaker.o(i.CheckCrc16) for CheckCrc16
    config.o(i.ConfigCheck) refers to config.o(.bss) for ConfigBuf
    config.o(i.ReadDefaultConfig) refers to config.o(i.ReadNetIpAddr) for ReadNetIpAddr
    config.o(i.ReadDefaultConfig) refers to config.o(i.ReadGateWayIp) for ReadGateWayIp
    config.o(i.ReadDefaultConfig) refers to config.o(i.ReadMacAddr) for ReadMacAddr
    config.o(i.ReadDefaultConfig) refers to config.o(i.ReadIapServerIpAddr) for ReadIapServerIpAddr
    config.o(i.ReadDefaultConfig) refers to socket.o(.bss) for Net
    config.o(i.ReadGateWayIp) refers to config.o(i.ConfigCheck) for ConfigCheck
    config.o(i.ReadGateWayIp) refers to config.o(i.WriteCurConfig) for WriteCurConfig
    config.o(i.ReadGateWayIp) refers to config.o(.bss) for ConfigBuf
    config.o(i.ReadIapServerIpAddr) refers to config.o(i.ConfigCheck) for ConfigCheck
    config.o(i.ReadIapServerIpAddr) refers to config.o(i.WriteCurConfig) for WriteCurConfig
    config.o(i.ReadIapServerIpAddr) refers to config.o(.bss) for ConfigBuf
    config.o(i.ReadMacAddr) refers to rng.o(i.RNG_Init) for RNG_Init
    config.o(i.ReadMacAddr) refers to rng.o(i.RNG_Get_RandomNum) for RNG_Get_RandomNum
    config.o(i.ReadMacAddr) refers to config.o(i.ConfigCheck) for ConfigCheck
    config.o(i.ReadMacAddr) refers to config.o(i.WriteCurConfig) for WriteCurConfig
    config.o(i.ReadMacAddr) refers to config.o(.bss) for ConfigBuf
    config.o(i.ReadNetIpAddr) refers to config.o(i.ConfigCheck) for ConfigCheck
    config.o(i.ReadNetIpAddr) refers to config.o(i.WriteCurConfig) for WriteCurConfig
    config.o(i.ReadNetIpAddr) refers to config.o(.bss) for ConfigBuf
    config.o(i.WriteConfig) refers to crcmaker.o(i.SetCrc16) for SetCrc16
    config.o(i.WriteConfig) refers to fminit.o(i.FramWriteBurstByte) for FramWriteBurstByte
    config.o(i.WriteCurConfig) refers to fminit.o(i.FramWriteBurstByte) for FramWriteBurstByte
    config.o(i.WriteCurConfig) refers to config.o(.bss) for ConfigBuf
    iappro.o(i.IapDataRecv) refers to cjson.o(i.cJSON_Parse) for cJSON_Parse
    iappro.o(i.IapDataRecv) refers to cjson.o(i.cJSON_GetObjectItem) for cJSON_GetObjectItem
    iappro.o(i.IapDataRecv) refers to malloc.o(i.mymalloc) for mymalloc
    iappro.o(i.IapDataRecv) refers to dfixui.o(.text) for __aeabi_d2uiz
    iappro.o(i.IapDataRecv) refers to public.o(i.BufCmp) for BufCmp
    iappro.o(i.IapDataRecv) refers to flash.o(i.AppMd5Check) for AppMd5Check
    iappro.o(i.IapDataRecv) refers to iappro.o(i.SendBean) for SendBean
    iappro.o(i.IapDataRecv) refers to flash.o(i.Jump2App) for Jump2App
    iappro.o(i.IapDataRecv) refers to flash.o(i.WriteAppToFlash) for WriteAppToFlash
    iappro.o(i.IapDataRecv) refers to cjson.o(i.cJSON_Delete) for cJSON_Delete
    iappro.o(i.IapDataRecv) refers to malloc.o(i.myfree) for myfree
    iappro.o(i.IapDataRecv) refers to mcu.o(.data) for SYS_TICK
    iappro.o(i.IapDataRecv) refers to iappro.o(.bss) for Iap
    iappro.o(i.IapPro) refers to iappro.o(i.SendBean) for SendBean
    iappro.o(i.IapPro) refers to mcu.o(i.MsTickDiff) for MsTickDiff
    iappro.o(i.IapPro) refers to flash.o(i.AppExist) for AppExist
    iappro.o(i.IapPro) refers to flash.o(i.Jump2App) for Jump2App
    iappro.o(i.IapPro) refers to sys.o(i.Sys_Soft_Reset) for Sys_Soft_Reset
    iappro.o(i.IapPro) refers to iappro.o(.bss) for Iap
    iappro.o(i.IapPro) refers to mcu.o(.data) for SYS_TICK
    iappro.o(i.SendBean) refers to databean.o(i.createDataBean) for createDataBean
    iappro.o(i.SendBean) refers to strlen.o(.text) for strlen
    iappro.o(i.SendBean) refers to netpro.o(i.NetSendData) for NetSendData
    iappro.o(i.SendBean) refers to malloc.o(i.myfree) for myfree
    iappro.o(i.SendBean) refers to databean.o(i.DeleteBean) for DeleteBean
    iappro.o(i.SendBean) refers to iappro.o(.bss) for Iap
    iappro.o(i.StartIap) refers to taskmanger.o(i.CreateTask) for CreateTask
    iappro.o(i.StartIap) refers to iappro.o(i.IapPro) for IapPro
    iappro.o(i.StartIap) refers to iappro.o(.data) for TASKID_IAPTASK
    iappro.o(i.StartIap) refers to iappro.o(.bss) for Iap
    rng.o(i.RNG_Get_RandomRange) refers to rng.o(i.RNG_Get_RandomNum) for RNG_Get_RandomNum
    rng.o(i.RNG_Init) refers to mcu.o(i.delay_us) for delay_us
    mcu.o(i.McuInit) refers to sys.o(i.Stm32_Clock_Init) for Stm32_Clock_Init
    mcu.o(i.McuInit) refers to mcu.o(i.SystemClockInit) for SystemClockInit
    mcu.o(i.MsTickDiff) refers to mcu.o(.data) for SYS_TICK
    mcu.o(i.SecTickDiff) refers to mcu.o(.data) for SEC_TICK
    mcu.o(i.SystemClockInit) refers to sys.o(i.MY_NVIC_Init) for MY_NVIC_Init
    mcu.o(i.TIM2_IRQHandler) refers to mcu.o(.data) for SYS_TICK
    mcu.o(i.TIM3_IRQHandler) refers to mcu.o(.data) for _100msCnt
    mcu.o(i.delay_ms) refers to mcu.o(i.MsTickDiff) for MsTickDiff
    mcu.o(i.delay_ms) refers to mcu.o(.data) for SYS_TICK
    sdram.o(i.SDRAM_Init) refers to sys.o(i.GPIO_Set) for GPIO_Set
    sdram.o(i.SDRAM_Init) refers to sys.o(i.GPIO_AF_Set) for GPIO_AF_Set
    sdram.o(i.SDRAM_Init) refers to sdram.o(i.SDRAM_Send_Cmd) for SDRAM_Send_Cmd
    sdram.o(i.SDRAM_Init) refers to mcu.o(i.delay_us) for delay_us
    flash.o(i.AppMd5Check) refers to flash.o(i.EraseApp) for EraseApp
    flash.o(i.EraseApp) refers to flash.o(i.UnlockFlash) for UnlockFlash
    flash.o(i.EraseApp) refers to flash.o(i.FlashBusy) for FlashBusy
    flash.o(i.EraseApp) refers to flash.o(i.LockFlash) for LockFlash
    flash.o(i.Jump2App) refers to flash.o(i.__setMSP) for __setMSP
    flash.o(i.Jump2App) refers to flash.o(.data) for JumpAddress
    flash.o(i.Jump2Boot) refers to flash.o(i.__setMSP) for __setMSP
    flash.o(i.Jump2Boot) refers to flash.o(.data) for JumpAddress
    flash.o(i.UpDataAddr) refers to flash.o(.data) for WriteAddress
    flash.o(i.WriteAppToFlash) refers to flash.o(i.UnlockFlash) for UnlockFlash
    flash.o(i.WriteAppToFlash) refers to flash.o(i.FlashBusy) for FlashBusy
    flash.o(i.WriteAppToFlash) refers to flash.o(i.LockFlash) for LockFlash
    flash.o(i.WriteAppVersionToFlash) refers to flash.o(i.UnlockFlash) for UnlockFlash
    flash.o(i.WriteAppVersionToFlash) refers to flash.o(i.FlashBusy) for FlashBusy
    flash.o(i.WriteAppVersionToFlash) refers to flash.o(i.LockFlash) for LockFlash
    flash.o(i.WriteFlash) refers to flash.o(i.UnlockFlash) for UnlockFlash
    flash.o(i.WriteFlash) refers to flash.o(i.FlashBusy) for FlashBusy
    flash.o(i.WriteFlash) refers to flash.o(i.LockFlash) for LockFlash
    flash.o(i.WriteMd5ToFlash) refers to flash.o(i.WriteAppVersionToFlash) for WriteAppVersionToFlash
    socket.o(i.CloseAllSocket) refers to socket.o(i.DisableSocket) for DisableSocket
    socket.o(i.CloseAllSocket) refers to socket.o(.bss) for Net
    socket.o(i.DisableSocket) refers to w5500.o(i.WriteReg1Byte) for WriteReg1Byte
    socket.o(i.DisableSocket) refers to w5500.o(i.WriteSocket1Byte) for WriteSocket1Byte
    socket.o(i.DisableSocket) refers to socket.o(.bss) for Net
    socket.o(i.GetIdleSocket) refers to socket.o(.bss) for Net
    socket.o(i.GetIntSocket) refers to socket.o(.bss) for Net
    socket.o(i.NetIntProcess) refers to w5500.o(i.ReadReg1Byte) for ReadReg1Byte
    socket.o(i.NetIntProcess) refers to w5500.o(i.WriteReg1Byte) for WriteReg1Byte
    socket.o(i.NetIntProcess) refers to socket.o(i.GetIntSocket) for GetIntSocket
    socket.o(i.NetIntProcess) refers to w5500.o(i.ReadSocket1Byte) for ReadSocket1Byte
    socket.o(i.NetIntProcess) refers to w5500.o(i.WriteSocket1Byte) for WriteSocket1Byte
    socket.o(i.NetIntProcess) refers to w5500.o(i.ReadSocket4Byte) for ReadSocket4Byte
    socket.o(i.NetIntProcess) refers to w5500.o(i.ReadSocket2Byte) for ReadSocket2Byte
    socket.o(i.NetIntProcess) refers to socket.o(i.DisableSocket) for DisableSocket
    socket.o(i.NetIntProcess) refers to socket.o(i.newTcpServer) for newTcpServer
    socket.o(i.NetIntProcess) refers to socket.o(i.newUdpSocket) for newUdpSocket
    socket.o(i.NetIntProcess) refers to socket.o(i.ReadSocketData) for ReadSocketData
    socket.o(i.NetIntProcess) refers to socket.o(.bss) for Net
    socket.o(i.ReCreatSocket) refers to socket.o(i.DisableSocket) for DisableSocket
    socket.o(i.ReCreatSocket) refers to socket.o(i.newTcpServer) for newTcpServer
    socket.o(i.ReadSocketData) refers to w5500.o(i.ReadSocket2Byte) for ReadSocket2Byte
    socket.o(i.ReadSocketData) refers to w5500.o(i.WriteSocket2Byte) for WriteSocket2Byte
    socket.o(i.ReadSocketData) refers to w5500.o(i.WriteSocket1Byte) for WriteSocket1Byte
    socket.o(i.ReadSocketData) refers to w5500.o(.bss) for W5500
    socket.o(i.SendSocketData) refers to w5500.o(i.ReadSocket2Byte) for ReadSocket2Byte
    socket.o(i.SendSocketData) refers to w5500.o(i.WriteSocket2Byte) for WriteSocket2Byte
    socket.o(i.SendSocketData) refers to w5500.o(i.WriteSocket1Byte) for WriteSocket1Byte
    socket.o(i.SendSocketData) refers to w5500.o(.bss) for W5500
    socket.o(i.Sendto) refers to w5500.o(i.WriteSocket4Byte) for WriteSocket4Byte
    socket.o(i.Sendto) refers to w5500.o(i.WriteSocket2Byte) for WriteSocket2Byte
    socket.o(i.Sendto) refers to w5500.o(i.ReadSocket2Byte) for ReadSocket2Byte
    socket.o(i.Sendto) refers to w5500.o(i.WriteSocket1Byte) for WriteSocket1Byte
    socket.o(i.Sendto) refers to socket.o(.bss) for Net
    socket.o(i.Sendto) refers to w5500.o(.bss) for W5500
    socket.o(i.SetAddrInfo) refers to w5500.o(i.WriteReg1Byte) for WriteReg1Byte
    socket.o(i.SetAddrInfo) refers to w5500.o(i.WriteBurstReg) for WriteBurstReg
    socket.o(i.SetAddrInfo) refers to w5500.o(i.WriteSocket1Byte) for WriteSocket1Byte
    socket.o(i.SetAddrInfo) refers to socket.o(.bss) for Net
    socket.o(i.SetAddrInfo) refers to w5500.o(.bss) for W5500
    socket.o(i.SetString2Ip) refers to socket.o(i.NetAsc2Hex) for NetAsc2Hex
    socket.o(i.W5500Init) refers to w5500.o(i.W5500_Init) for W5500_Init
    socket.o(i.W5500Init) refers to w5500.o(i.W5500Reset) for W5500Reset
    socket.o(i.W5500Init) refers to socket.o(.bss) for Net
    socket.o(i.W5500Init) refers to socket.o(i.NetIntProcess) for NetIntProcess
    socket.o(i.W5500Init) refers to socket.o(i.CloseAllSocket) for CloseAllSocket
    socket.o(i.W5500Init) refers to socket.o(i.ReCreatSocket) for ReCreatSocket
    socket.o(i.W5500Init) refers to socket.o(i.DisableSocket) for DisableSocket
    socket.o(i.W5500Init) refers to socket.o(i.newTcpClient) for newTcpClient
    socket.o(i.W5500Init) refers to socket.o(i.newTcpServer) for newTcpServer
    socket.o(i.W5500Init) refers to socket.o(i.newUdpSocket) for newUdpSocket
    socket.o(i.W5500Init) refers to socket.o(i.SetAddrInfo) for SetAddrInfo
    socket.o(i.W5500Init) refers to socket.o(i.WireIsLink) for WireIsLink
    socket.o(i.W5500Init) refers to socket.o(i.SendSocketData) for SendSocketData
    socket.o(i.W5500Init) refers to socket.o(i.Sendto) for Sendto
    socket.o(i.WireIsLink) refers to w5500.o(i.ReadReg1Byte) for ReadReg1Byte
    socket.o(i.newTcpClient) refers to socket.o(i.GetIdleSocket) for GetIdleSocket
    socket.o(i.newTcpClient) refers to w5500.o(i.WriteReg2Byte) for WriteReg2Byte
    socket.o(i.newTcpClient) refers to w5500.o(i.WriteReg1Byte) for WriteReg1Byte
    socket.o(i.newTcpClient) refers to w5500.o(i.WriteSocket1Byte) for WriteSocket1Byte
    socket.o(i.newTcpClient) refers to w5500.o(i.WriteSocket2Byte) for WriteSocket2Byte
    socket.o(i.newTcpClient) refers to w5500.o(i.WriteSocket4Byte) for WriteSocket4Byte
    socket.o(i.newTcpClient) refers to w5500.o(i.ReadSocket1Byte) for ReadSocket1Byte
    socket.o(i.newTcpClient) refers to socket.o(.bss) for Net
    socket.o(i.newTcpClient) refers to w5500.o(.bss) for W5500
    socket.o(i.newTcpServer) refers to socket.o(i.GetIdleSocket) for GetIdleSocket
    socket.o(i.newTcpServer) refers to w5500.o(i.WriteReg2Byte) for WriteReg2Byte
    socket.o(i.newTcpServer) refers to w5500.o(i.WriteReg1Byte) for WriteReg1Byte
    socket.o(i.newTcpServer) refers to w5500.o(i.WriteSocket1Byte) for WriteSocket1Byte
    socket.o(i.newTcpServer) refers to w5500.o(i.WriteSocket2Byte) for WriteSocket2Byte
    socket.o(i.newTcpServer) refers to w5500.o(i.ReadSocket1Byte) for ReadSocket1Byte
    socket.o(i.newTcpServer) refers to socket.o(.bss) for Net
    socket.o(i.newTcpServer) refers to w5500.o(.bss) for W5500
    socket.o(i.newUdpSocket) refers to socket.o(i.GetIdleSocket) for GetIdleSocket
    socket.o(i.newUdpSocket) refers to w5500.o(i.WriteReg1Byte) for WriteReg1Byte
    socket.o(i.newUdpSocket) refers to w5500.o(i.WriteSocket1Byte) for WriteSocket1Byte
    socket.o(i.newUdpSocket) refers to w5500.o(i.WriteSocket2Byte) for WriteSocket2Byte
    socket.o(i.newUdpSocket) refers to w5500.o(i.ReadSocket1Byte) for ReadSocket1Byte
    socket.o(i.newUdpSocket) refers to socket.o(.bss) for Net
    socket.o(i.newUdpSocket) refers to w5500.o(.bss) for W5500
    w5500.o(i.ReadBurstReg) refers to w5500.o(.bss) for W5500
    w5500.o(i.ReadReg1Byte) refers to w5500.o(.bss) for W5500
    w5500.o(i.ReadReg2Byte) refers to w5500.o(.bss) for W5500
    w5500.o(i.ReadSocket1Byte) refers to w5500.o(.bss) for W5500
    w5500.o(i.ReadSocket2Byte) refers to w5500.o(.bss) for W5500
    w5500.o(i.ReadSocket4Byte) refers to w5500.o(.bss) for W5500
    w5500.o(i.W5500Reset) refers to w5500.o(.bss) for W5500
    w5500.o(i.W5500_Init) refers to w5500.o(.bss) for W5500
    w5500.o(i.WriteBurstReg) refers to w5500.o(.bss) for W5500
    w5500.o(i.WriteReg1Byte) refers to w5500.o(.bss) for W5500
    w5500.o(i.WriteReg2Byte) refers to w5500.o(.bss) for W5500
    w5500.o(i.WriteSocket1Byte) refers to w5500.o(.bss) for W5500
    w5500.o(i.WriteSocket2Byte) refers to w5500.o(.bss) for W5500
    w5500.o(i.WriteSocket4Byte) refers to w5500.o(.bss) for W5500
    taskmanger.o(i.CreateTask) refers to malloc.o(i.mymalloc) for mymalloc
    taskmanger.o(i.CreateTask) refers to strcpy.o(.text) for strcpy
    taskmanger.o(i.CreateTask) refers to taskmanger.o(.bss) for TaskManger
    taskmanger.o(i.CreateTask) refers to mcu.o(.data) for SYS_TICK
    taskmanger.o(i.DelTask) refers to malloc.o(i.myfree) for myfree
    taskmanger.o(i.DelTask) refers to taskmanger.o(.bss) for TaskManger
    taskmanger.o(i.ExecTask) refers to mcu.o(i.MsTickDiff) for MsTickDiff
    taskmanger.o(i.ExecTask) refers to mcu.o(.data) for SYS_TICK
    taskmanger.o(i.ExecTask) refers to taskmanger.o(.bss) for TaskManger
    taskmanger.o(i.GetTaskList) refers to cjson.o(i.cJSON_Delete) for cJSON_Delete
    taskmanger.o(i.GetTaskList) refers to cjson.o(i.cJSON_CreateObject) for cJSON_CreateObject
    taskmanger.o(i.GetTaskList) refers to cjson.o(i.cJSON_CreateArray) for cJSON_CreateArray
    taskmanger.o(i.GetTaskList) refers to dfltui.o(.text) for __aeabi_ui2d
    taskmanger.o(i.GetTaskList) refers to cjson.o(i.cJSON_CreateNumber) for cJSON_CreateNumber
    taskmanger.o(i.GetTaskList) refers to cjson.o(i.cJSON_AddItemToObject) for cJSON_AddItemToObject
    taskmanger.o(i.GetTaskList) refers to malloc.o(i.my_mem_perused) for my_mem_perused
    taskmanger.o(i.GetTaskList) refers to cjson.o(i.cJSON_CreateString) for cJSON_CreateString
    taskmanger.o(i.GetTaskList) refers to mcu.o(i.MsTickDiff) for MsTickDiff
    taskmanger.o(i.GetTaskList) refers to dflti.o(.text) for __aeabi_i2d
    taskmanger.o(i.GetTaskList) refers to dfltul.o(.text) for __aeabi_ul2d
    taskmanger.o(i.GetTaskList) refers to cjson.o(i.cJSON_AddItemToArray) for cJSON_AddItemToArray
    taskmanger.o(i.GetTaskList) refers to cjson.o(i.cJSON_PrintUnformatted) for cJSON_PrintUnformatted
    taskmanger.o(i.GetTaskList) refers to malloc.o(i.myfree) for myfree
    taskmanger.o(i.GetTaskList) refers to taskmanger.o(.data) for TaskList
    taskmanger.o(i.GetTaskList) refers to taskmanger.o(.bss) for TaskManger
    taskmanger.o(i.SetTaskDelay) refers to taskmanger.o(.bss) for TaskManger
    taskmanger.o(i.SetTaskStatus) refers to strcpy.o(.text) for strcpy
    taskmanger.o(i.SetTaskStatus) refers to taskmanger.o(.bss) for TaskManger
    malloc.o(i.my_mem_free) refers to malloc.o(.data) for mallco_dev
    malloc.o(i.my_mem_free) refers to malloc.o(.constdata) for memsize
    malloc.o(i.my_mem_free) refers to malloc.o(.bss) for MemUsed
    malloc.o(i.my_mem_init) refers to malloc.o(i.mymemset) for mymemset
    malloc.o(i.my_mem_init) refers to malloc.o(.constdata) for memtblsize
    malloc.o(i.my_mem_init) refers to malloc.o(.data) for mallco_dev
    malloc.o(i.my_mem_malloc) refers to malloc.o(.data) for mallco_dev
    malloc.o(i.my_mem_malloc) refers to malloc.o(.constdata) for memblksize
    malloc.o(i.my_mem_malloc) refers to malloc.o(.bss) for MemUsed
    malloc.o(i.my_mem_perused) refers to malloc.o(.bss) for MemUsed
    malloc.o(i.myfree) refers to malloc.o(i.my_mem_free) for my_mem_free
    malloc.o(i.myfree) refers to malloc.o(.data) for mallco_dev
    malloc.o(i.mymalloc) refers to malloc.o(i.my_mem_malloc) for my_mem_malloc
    malloc.o(i.mymalloc) refers to malloc.o(.data) for mallco_dev
    malloc.o(i.myrealloc) refers to malloc.o(i.my_mem_malloc) for my_mem_malloc
    malloc.o(i.myrealloc) refers to malloc.o(i.mymemcpy) for mymemcpy
    malloc.o(i.myrealloc) refers to malloc.o(i.myfree) for myfree
    malloc.o(i.myrealloc) refers to malloc.o(.data) for mallco_dev
    malloc.o(.data) refers to malloc.o(i.my_mem_init) for my_mem_init
    malloc.o(.data) refers to malloc.o(i.my_mem_perused) for my_mem_perused
    malloc.o(.data) refers to malloc.o(.bss) for mem1base
    malloc.o(.data) refers to malloc.o(.ARM.__AT_0xC01F4000) for mem2base
    malloc.o(.data) refers to malloc.o(.ARM.__AT_0x10000000) for mem3base
    malloc.o(.data) refers to malloc.o(.ARM.__AT_0xC1E30000) for mem2mapbase
    malloc.o(.data) refers to malloc.o(.ARM.__AT_0x1000F000) for mem3mapbase
    cjson.o(i.cJSON_AddItemReferenceToArray) refers to cjson.o(i.create_reference) for create_reference
    cjson.o(i.cJSON_AddItemReferenceToArray) refers to cjson.o(i.cJSON_AddItemToArray) for cJSON_AddItemToArray
    cjson.o(i.cJSON_AddItemReferenceToArray) refers to cjson.o(.data) for global_hooks
    cjson.o(i.cJSON_AddItemReferenceToObject) refers to cjson.o(i.create_reference) for create_reference
    cjson.o(i.cJSON_AddItemReferenceToObject) refers to cjson.o(i.cJSON_AddItemToObject) for cJSON_AddItemToObject
    cjson.o(i.cJSON_AddItemReferenceToObject) refers to cjson.o(.data) for global_hooks
    cjson.o(i.cJSON_AddItemToObject) refers to cjson.o(i.cJSON_strdup) for cJSON_strdup
    cjson.o(i.cJSON_AddItemToObject) refers to cjson.o(i.cJSON_AddItemToObjectCS) for cJSON_AddItemToObjectCS
    cjson.o(i.cJSON_AddItemToObject) refers to cjson.o(.data) for global_hooks
    cjson.o(i.cJSON_AddItemToObjectCS) refers to cjson.o(i.cJSON_AddItemToArray) for cJSON_AddItemToArray
    cjson.o(i.cJSON_AddItemToObjectCS) refers to cjson.o(.data) for global_hooks
    cjson.o(i.cJSON_Compare) refers to cjson.o(i.cJSON_IsInvalid) for cJSON_IsInvalid
    cjson.o(i.cJSON_Compare) refers to cdcmple.o(.text) for __aeabi_cdcmpeq
    cjson.o(i.cJSON_Compare) refers to strcmp.o(.text) for strcmp
    cjson.o(i.cJSON_Compare) refers to cjson.o(i.get_object_item) for get_object_item
    cjson.o(i.cJSON_CreateArray) refers to cjson.o(i.cJSON_New_Item) for cJSON_New_Item
    cjson.o(i.cJSON_CreateArray) refers to cjson.o(.data) for global_hooks
    cjson.o(i.cJSON_CreateBool) refers to cjson.o(i.cJSON_New_Item) for cJSON_New_Item
    cjson.o(i.cJSON_CreateBool) refers to cjson.o(.data) for global_hooks
    cjson.o(i.cJSON_CreateDoubleArray) refers to cjson.o(i.cJSON_CreateArray) for cJSON_CreateArray
    cjson.o(i.cJSON_CreateDoubleArray) refers to cjson.o(i.cJSON_CreateNumber) for cJSON_CreateNumber
    cjson.o(i.cJSON_CreateDoubleArray) refers to cjson.o(i.cJSON_Delete) for cJSON_Delete
    cjson.o(i.cJSON_CreateDoubleArray) refers to cjson.o(i.suffix_object) for suffix_object
    cjson.o(i.cJSON_CreateFalse) refers to cjson.o(i.cJSON_New_Item) for cJSON_New_Item
    cjson.o(i.cJSON_CreateFalse) refers to cjson.o(.data) for global_hooks
    cjson.o(i.cJSON_CreateFloatArray) refers to cjson.o(i.cJSON_CreateArray) for cJSON_CreateArray
    cjson.o(i.cJSON_CreateFloatArray) refers to f2d.o(.text) for __aeabi_f2d
    cjson.o(i.cJSON_CreateFloatArray) refers to cjson.o(i.cJSON_CreateNumber) for cJSON_CreateNumber
    cjson.o(i.cJSON_CreateFloatArray) refers to cjson.o(i.cJSON_Delete) for cJSON_Delete
    cjson.o(i.cJSON_CreateFloatArray) refers to cjson.o(i.suffix_object) for suffix_object
    cjson.o(i.cJSON_CreateIntArray) refers to cjson.o(i.cJSON_CreateArray) for cJSON_CreateArray
    cjson.o(i.cJSON_CreateIntArray) refers to dflti.o(.text) for __aeabi_i2d
    cjson.o(i.cJSON_CreateIntArray) refers to cjson.o(i.cJSON_CreateNumber) for cJSON_CreateNumber
    cjson.o(i.cJSON_CreateIntArray) refers to cjson.o(i.cJSON_Delete) for cJSON_Delete
    cjson.o(i.cJSON_CreateIntArray) refers to cjson.o(i.suffix_object) for suffix_object
    cjson.o(i.cJSON_CreateNull) refers to cjson.o(i.cJSON_New_Item) for cJSON_New_Item
    cjson.o(i.cJSON_CreateNull) refers to cjson.o(.data) for global_hooks
    cjson.o(i.cJSON_CreateNumber) refers to cjson.o(i.cJSON_New_Item) for cJSON_New_Item
    cjson.o(i.cJSON_CreateNumber) refers to cdrcmple.o(.text) for __aeabi_cdrcmple
    cjson.o(i.cJSON_CreateNumber) refers to cdcmple.o(.text) for __aeabi_cdcmple
    cjson.o(i.cJSON_CreateNumber) refers to dfixi.o(.text) for __aeabi_d2iz
    cjson.o(i.cJSON_CreateNumber) refers to cjson.o(.data) for global_hooks
    cjson.o(i.cJSON_CreateObject) refers to cjson.o(i.cJSON_New_Item) for cJSON_New_Item
    cjson.o(i.cJSON_CreateObject) refers to cjson.o(.data) for global_hooks
    cjson.o(i.cJSON_CreateRaw) refers to cjson.o(i.cJSON_New_Item) for cJSON_New_Item
    cjson.o(i.cJSON_CreateRaw) refers to cjson.o(i.cJSON_strdup) for cJSON_strdup
    cjson.o(i.cJSON_CreateRaw) refers to cjson.o(i.cJSON_Delete) for cJSON_Delete
    cjson.o(i.cJSON_CreateRaw) refers to cjson.o(.data) for global_hooks
    cjson.o(i.cJSON_CreateString) refers to cjson.o(i.cJSON_New_Item) for cJSON_New_Item
    cjson.o(i.cJSON_CreateString) refers to cjson.o(i.cJSON_strdup) for cJSON_strdup
    cjson.o(i.cJSON_CreateString) refers to cjson.o(i.cJSON_Delete) for cJSON_Delete
    cjson.o(i.cJSON_CreateString) refers to cjson.o(.data) for global_hooks
    cjson.o(i.cJSON_CreateStringArray) refers to cjson.o(i.cJSON_CreateArray) for cJSON_CreateArray
    cjson.o(i.cJSON_CreateStringArray) refers to cjson.o(i.cJSON_CreateString) for cJSON_CreateString
    cjson.o(i.cJSON_CreateStringArray) refers to cjson.o(i.cJSON_Delete) for cJSON_Delete
    cjson.o(i.cJSON_CreateStringArray) refers to cjson.o(i.suffix_object) for suffix_object
    cjson.o(i.cJSON_CreateTrue) refers to cjson.o(i.cJSON_New_Item) for cJSON_New_Item
    cjson.o(i.cJSON_CreateTrue) refers to cjson.o(.data) for global_hooks
    cjson.o(i.cJSON_Delete) refers to cjson.o(.data) for global_hooks
    cjson.o(i.cJSON_DeleteItemFromArray) refers to cjson.o(i.cJSON_DetachItemFromArray) for cJSON_DetachItemFromArray
    cjson.o(i.cJSON_DeleteItemFromArray) refers to cjson.o(i.cJSON_Delete) for cJSON_Delete
    cjson.o(i.cJSON_DeleteItemFromObject) refers to cjson.o(i.cJSON_DetachItemFromObject) for cJSON_DetachItemFromObject
    cjson.o(i.cJSON_DeleteItemFromObject) refers to cjson.o(i.cJSON_Delete) for cJSON_Delete
    cjson.o(i.cJSON_DeleteItemFromObjectCaseSensitive) refers to cjson.o(i.cJSON_DetachItemFromObjectCaseSensitive) for cJSON_DetachItemFromObjectCaseSensitive
    cjson.o(i.cJSON_DeleteItemFromObjectCaseSensitive) refers to cjson.o(i.cJSON_Delete) for cJSON_Delete
    cjson.o(i.cJSON_DetachItemFromArray) refers to cjson.o(i.get_array_item) for get_array_item
    cjson.o(i.cJSON_DetachItemFromArray) refers to cjson.o(i.cJSON_DetachItemViaPointer) for cJSON_DetachItemViaPointer
    cjson.o(i.cJSON_DetachItemFromObject) refers to cjson.o(i.cJSON_GetObjectItem) for cJSON_GetObjectItem
    cjson.o(i.cJSON_DetachItemFromObject) refers to cjson.o(i.cJSON_DetachItemViaPointer) for cJSON_DetachItemViaPointer
    cjson.o(i.cJSON_DetachItemFromObjectCaseSensitive) refers to cjson.o(i.cJSON_GetObjectItemCaseSensitive) for cJSON_GetObjectItemCaseSensitive
    cjson.o(i.cJSON_DetachItemFromObjectCaseSensitive) refers to cjson.o(i.cJSON_DetachItemViaPointer) for cJSON_DetachItemViaPointer
    cjson.o(i.cJSON_Duplicate) refers to cjson.o(i.cJSON_New_Item) for cJSON_New_Item
    cjson.o(i.cJSON_Duplicate) refers to cjson.o(i.cJSON_strdup) for cJSON_strdup
    cjson.o(i.cJSON_Duplicate) refers to cjson.o(i.cJSON_Delete) for cJSON_Delete
    cjson.o(i.cJSON_Duplicate) refers to cjson.o(.data) for global_hooks
    cjson.o(i.cJSON_GetArrayItem) refers to cjson.o(i.get_array_item) for get_array_item
    cjson.o(i.cJSON_GetErrorPtr) refers to cjson.o(.data) for global_error
    cjson.o(i.cJSON_GetObjectItem) refers to cjson.o(i.get_object_item) for get_object_item
    cjson.o(i.cJSON_GetObjectItemCaseSensitive) refers to cjson.o(i.get_object_item) for get_object_item
    cjson.o(i.cJSON_HasObjectItem) refers to cjson.o(i.cJSON_GetObjectItem) for cJSON_GetObjectItem
    cjson.o(i.cJSON_InitHooks) refers to mallocr.o(i.__malloc$realloc) for malloc
    cjson.o(i.cJSON_InitHooks) refers to cjson.o(.data) for global_hooks
    cjson.o(i.cJSON_InitHooks) refers to mallocr.o(i.__free$realloc) for free
    cjson.o(i.cJSON_InitHooks) refers to mallocr.o(i.realloc) for realloc
    cjson.o(i.cJSON_InsertItemInArray) refers to cjson.o(i.get_array_item) for get_array_item
    cjson.o(i.cJSON_InsertItemInArray) refers to cjson.o(i.cJSON_AddItemToArray) for cJSON_AddItemToArray
    cjson.o(i.cJSON_New_Item) refers to memseta.o(.text) for __aeabi_memclr4
    cjson.o(i.cJSON_Parse) refers to cjson.o(i.cJSON_ParseWithOpts) for cJSON_ParseWithOpts
    cjson.o(i.cJSON_ParseWithOpts) refers to memseta.o(.text) for __aeabi_memclr4
    cjson.o(i.cJSON_ParseWithOpts) refers to strlen.o(.text) for strlen
    cjson.o(i.cJSON_ParseWithOpts) refers to cjson.o(i.cJSON_New_Item) for cJSON_New_Item
    cjson.o(i.cJSON_ParseWithOpts) refers to cjson.o(i.skip_utf8_bom) for skip_utf8_bom
    cjson.o(i.cJSON_ParseWithOpts) refers to cjson.o(i.buffer_skip_whitespace) for buffer_skip_whitespace
    cjson.o(i.cJSON_ParseWithOpts) refers to cjson.o(i.parse_value) for parse_value
    cjson.o(i.cJSON_ParseWithOpts) refers to cjson.o(i.cJSON_Delete) for cJSON_Delete
    cjson.o(i.cJSON_ParseWithOpts) refers to cjson.o(.data) for global_error
    cjson.o(i.cJSON_Print) refers to cjson.o(i.print) for print
    cjson.o(i.cJSON_Print) refers to cjson.o(.data) for global_hooks
    cjson.o(i.cJSON_PrintBuffered) refers to memseta.o(.text) for __aeabi_memclr4
    cjson.o(i.cJSON_PrintBuffered) refers to cjson.o(i.print_value) for print_value
    cjson.o(i.cJSON_PrintBuffered) refers to cjson.o(.data) for global_hooks
    cjson.o(i.cJSON_PrintPreallocated) refers to memseta.o(.text) for __aeabi_memclr4
    cjson.o(i.cJSON_PrintPreallocated) refers to cjson.o(i.print_value) for print_value
    cjson.o(i.cJSON_PrintPreallocated) refers to cjson.o(.data) for global_hooks
    cjson.o(i.cJSON_PrintUnformatted) refers to cjson.o(i.print) for print
    cjson.o(i.cJSON_PrintUnformatted) refers to cjson.o(.data) for global_hooks
    cjson.o(i.cJSON_ReplaceItemInArray) refers to cjson.o(i.get_array_item) for get_array_item
    cjson.o(i.cJSON_ReplaceItemInArray) refers to cjson.o(i.cJSON_ReplaceItemViaPointer) for cJSON_ReplaceItemViaPointer
    cjson.o(i.cJSON_ReplaceItemInObject) refers to cjson.o(i.replace_item_in_object) for replace_item_in_object
    cjson.o(i.cJSON_ReplaceItemInObjectCaseSensitive) refers to cjson.o(i.replace_item_in_object) for replace_item_in_object
    cjson.o(i.cJSON_ReplaceItemViaPointer) refers to cjson.o(i.cJSON_Delete) for cJSON_Delete
    cjson.o(i.cJSON_SetNumberHelper) refers to cdrcmple.o(.text) for __aeabi_cdrcmple
    cjson.o(i.cJSON_SetNumberHelper) refers to cdcmple.o(.text) for __aeabi_cdcmple
    cjson.o(i.cJSON_SetNumberHelper) refers to dfixi.o(.text) for __aeabi_d2iz
    cjson.o(i.cJSON_Version) refers to printfa.o(i.__0sprintf) for __2sprintf
    cjson.o(i.cJSON_Version) refers to cjson.o(.bss) for version
    cjson.o(i.cJSON_free) refers to cjson.o(.data) for global_hooks
    cjson.o(i.cJSON_malloc) refers to cjson.o(.data) for global_hooks
    cjson.o(i.cJSON_strdup) refers to strlen.o(.text) for strlen
    cjson.o(i.cJSON_strdup) refers to memcpya.o(.text) for __aeabi_memcpy
    cjson.o(i.case_insensitive_strcmp) refers to tolower.o(.text) for tolower
    cjson.o(i.create_reference) refers to cjson.o(i.cJSON_New_Item) for cJSON_New_Item
    cjson.o(i.create_reference) refers to memcpya.o(.text) for __aeabi_memcpy4
    cjson.o(i.ensure) refers to memcpya.o(.text) for __aeabi_memcpy
    cjson.o(i.get_object_item) refers to strcmp.o(.text) for strcmp
    cjson.o(i.get_object_item) refers to cjson.o(i.case_insensitive_strcmp) for case_insensitive_strcmp
    cjson.o(i.internal_free) refers to malloc.o(i.myfree) for myfree
    cjson.o(i.internal_malloc) refers to malloc.o(i.mymalloc) for mymalloc
    cjson.o(i.internal_realloc) refers to malloc.o(i.myrealloc) for myrealloc
    cjson.o(i.parse_array) refers to cjson.o(i.buffer_skip_whitespace) for buffer_skip_whitespace
    cjson.o(i.parse_array) refers to cjson.o(i.cJSON_New_Item) for cJSON_New_Item
    cjson.o(i.parse_array) refers to cjson.o(i.parse_value) for parse_value
    cjson.o(i.parse_array) refers to cjson.o(i.cJSON_Delete) for cJSON_Delete
    cjson.o(i.parse_number) refers to cjson.o(i.get_decimal_point) for get_decimal_point
    cjson.o(i.parse_number) refers to strtod.o(i.__hardfp_strtod) for __hardfp_strtod
    cjson.o(i.parse_number) refers to cdrcmple.o(.text) for __aeabi_cdrcmple
    cjson.o(i.parse_number) refers to cdcmple.o(.text) for __aeabi_cdcmple
    cjson.o(i.parse_number) refers to dfixi.o(.text) for __aeabi_d2iz
    cjson.o(i.parse_object) refers to cjson.o(i.buffer_skip_whitespace) for buffer_skip_whitespace
    cjson.o(i.parse_object) refers to cjson.o(i.cJSON_New_Item) for cJSON_New_Item
    cjson.o(i.parse_object) refers to cjson.o(i.parse_string) for parse_string
    cjson.o(i.parse_object) refers to cjson.o(i.parse_value) for parse_value
    cjson.o(i.parse_object) refers to cjson.o(i.cJSON_Delete) for cJSON_Delete
    cjson.o(i.parse_string) refers to cjson.o(i.utf16_literal_to_utf8) for utf16_literal_to_utf8
    cjson.o(i.parse_value) refers to strncmp.o(.text) for strncmp
    cjson.o(i.parse_value) refers to cjson.o(i.parse_string) for parse_string
    cjson.o(i.parse_value) refers to cjson.o(i.parse_number) for parse_number
    cjson.o(i.parse_value) refers to cjson.o(i.parse_array) for parse_array
    cjson.o(i.parse_value) refers to cjson.o(i.parse_object) for parse_object
    cjson.o(i.print) refers to memseta.o(.text) for __aeabi_memclr4
    cjson.o(i.print) refers to cjson.o(i.print_value) for print_value
    cjson.o(i.print) refers to cjson.o(i.update_offset) for update_offset
    cjson.o(i.print) refers to memcpya.o(.text) for __aeabi_memcpy
    cjson.o(i.print_array) refers to cjson.o(i.ensure) for ensure
    cjson.o(i.print_array) refers to cjson.o(i.print_value) for print_value
    cjson.o(i.print_array) refers to cjson.o(i.update_offset) for update_offset
    cjson.o(i.print_number) refers to scanf_fp.o(.text) for _scanf_real
    cjson.o(i.print_number) refers to cjson.o(i.get_decimal_point) for get_decimal_point
    cjson.o(i.print_number) refers to dmul.o(.text) for __aeabi_dmul
    cjson.o(i.print_number) refers to cdcmple.o(.text) for __aeabi_cdcmpeq
    cjson.o(i.print_number) refers to printfa.o(i.__0sprintf) for __2sprintf
    cjson.o(i.print_number) refers to __0sscanf.o(.text) for __0sscanf
    cjson.o(i.print_number) refers to cjson.o(i.ensure) for ensure
    cjson.o(i.print_object) refers to cjson.o(i.ensure) for ensure
    cjson.o(i.print_object) refers to cjson.o(i.print_string_ptr) for print_string_ptr
    cjson.o(i.print_object) refers to cjson.o(i.update_offset) for update_offset
    cjson.o(i.print_object) refers to cjson.o(i.print_value) for print_value
    cjson.o(i.print_string) refers to cjson.o(i.print_string_ptr) for print_string_ptr
    cjson.o(i.print_string_ptr) refers to cjson.o(i.ensure) for ensure
    cjson.o(i.print_string_ptr) refers to strcpy.o(.text) for strcpy
    cjson.o(i.print_string_ptr) refers to memcpya.o(.text) for __aeabi_memcpy
    cjson.o(i.print_string_ptr) refers to printfa.o(i.__0sprintf) for __2sprintf
    cjson.o(i.print_value) refers to cjson.o(i.ensure) for ensure
    cjson.o(i.print_value) refers to strcpy.o(.text) for strcpy
    cjson.o(i.print_value) refers to cjson.o(i.print_number) for print_number
    cjson.o(i.print_value) refers to strlen.o(.text) for strlen
    cjson.o(i.print_value) refers to memcpya.o(.text) for __aeabi_memcpy
    cjson.o(i.print_value) refers to cjson.o(i.print_string) for print_string
    cjson.o(i.print_value) refers to cjson.o(i.print_array) for print_array
    cjson.o(i.print_value) refers to cjson.o(i.print_object) for print_object
    cjson.o(i.replace_item_in_object) refers to cjson.o(i.cJSON_free) for cJSON_free
    cjson.o(i.replace_item_in_object) refers to cjson.o(i.cJSON_strdup) for cJSON_strdup
    cjson.o(i.replace_item_in_object) refers to cjson.o(i.get_object_item) for get_object_item
    cjson.o(i.replace_item_in_object) refers to cjson.o(i.cJSON_ReplaceItemViaPointer) for cJSON_ReplaceItemViaPointer
    cjson.o(i.replace_item_in_object) refers to cjson.o(.data) for global_hooks
    cjson.o(i.skip_utf8_bom) refers to strncmp.o(.text) for strncmp
    cjson.o(i.update_offset) refers to strlen.o(.text) for strlen
    cjson.o(i.utf16_literal_to_utf8) refers to cjson.o(i.parse_hex4) for parse_hex4
    cjson.o(.data) refers to cjson.o(i.internal_malloc) for internal_malloc
    cjson.o(.data) refers to cjson.o(i.internal_free) for internal_free
    cjson.o(.data) refers to cjson.o(i.internal_realloc) for internal_realloc
    crcmaker.o(i.CheckCrc16) refers to crcmaker.o(i.CalCrc16) for CalCrc16
    crcmaker.o(i.SetCrc16) refers to crcmaker.o(i.CalCrc16) for CalCrc16
    crcmaker.o(i.SumCheck) refers to crcmaker.o(i.SumAll) for SumAll
    fminit.o(i.FmIICAck) refers to mcu.o(i.delay_us) for delay_us
    fminit.o(i.FmIICNack) refers to mcu.o(i.delay_us) for delay_us
    fminit.o(i.FmIICReadByte) refers to mcu.o(i.delay_us) for delay_us
    fminit.o(i.FmIICSendByte) refers to mcu.o(i.delay_us) for delay_us
    fminit.o(i.FmIICStart) refers to mcu.o(i.delay_us) for delay_us
    fminit.o(i.FmIICStop) refers to mcu.o(i.delay_us) for delay_us
    fminit.o(i.FramReadBurstByte) refers to fminit.o(i.FmIICStart) for FmIICStart
    fminit.o(i.FramReadBurstByte) refers to fminit.o(i.FmIICSendByte) for FmIICSendByte
    fminit.o(i.FramReadBurstByte) refers to fminit.o(i.FmIICAck) for FmIICAck
    fminit.o(i.FramReadBurstByte) refers to fminit.o(i.FmIICReadByte) for FmIICReadByte
    fminit.o(i.FramReadBurstByte) refers to fminit.o(i.FmIICNack) for FmIICNack
    fminit.o(i.FramReadBurstByte) refers to fminit.o(i.FmIICStop) for FmIICStop
    fminit.o(i.FramWriteBurstByte) refers to fminit.o(i.FmIICStart) for FmIICStart
    fminit.o(i.FramWriteBurstByte) refers to fminit.o(i.FmIICSendByte) for FmIICSendByte
    fminit.o(i.FramWriteBurstByte) refers to fminit.o(i.FmIICAck) for FmIICAck
    fminit.o(i.FramWriteBurstByte) refers to fminit.o(i.FmIICStop) for FmIICStop
    databean.o(i.DeleteBean) refers to cjson.o(i.cJSON_Delete) for cJSON_Delete
    databean.o(i.DeleteBean) refers to databean.o(.data) for AckBean
    databean.o(i.createDataBean) refers to cjson.o(i.cJSON_CreateObject) for cJSON_CreateObject
    databean.o(i.createDataBean) refers to cjson.o(i.cJSON_CreateString) for cJSON_CreateString
    databean.o(i.createDataBean) refers to cjson.o(i.cJSON_AddItemToObject) for cJSON_AddItemToObject
    databean.o(i.createDataBean) refers to cjson.o(i.cJSON_CreateNull) for cJSON_CreateNull
    databean.o(i.createDataBean) refers to cjson.o(i.cJSON_PrintUnformatted) for cJSON_PrintUnformatted
    databean.o(i.createDataBean) refers to databean.o(.data) for AckBean
    strtod.o(i.__hardfp_strtod) refers (Special) to iusefp.o(.text) for __I$use$fp
    strtod.o(i.__hardfp_strtod) refers to strtod.o(.text) for __strtod_int
    strtod.o(i.__softfp_strtod) refers (Special) to iusefp.o(.text) for __I$use$fp
    strtod.o(i.__softfp_strtod) refers to strtod.o(.text) for __strtod_int
    strtod.o(i.strtod) refers (Special) to iusefp.o(.text) for __I$use$fp
    strtod.o(i.strtod) refers to strtod.o(.text) for __strtod_int
    entry.o(.ARM.Collect$$$$00000000) refers (Special) to entry10a.o(.ARM.Collect$$$$0000000D) for __rt_final_cpp
    entry.o(.ARM.Collect$$$$00000000) refers (Special) to entry11a.o(.ARM.Collect$$$$0000000F) for __rt_final_exit
    entry.o(.ARM.Collect$$$$00000000) refers (Special) to entry7b.o(.ARM.Collect$$$$00000008) for _main_clock
    entry.o(.ARM.Collect$$$$00000000) refers (Special) to entry8b.o(.ARM.Collect$$$$0000000A) for _main_cpp_init
    entry.o(.ARM.Collect$$$$00000000) refers (Special) to entry9a.o(.ARM.Collect$$$$0000000B) for _main_init
    entry.o(.ARM.Collect$$$$00000000) refers (Special) to entry5.o(.ARM.Collect$$$$00000004) for _main_scatterload
    entry.o(.ARM.Collect$$$$00000000) refers (Special) to entry2.o(.ARM.Collect$$$$00000001) for _main_stk
    printfb.o(i.__0fprintf$bare) refers to printfb.o(i._printf_core) for _printf_core
    printfb.o(i.__0fprintf$bare) refers to fputc.o(i.fputc) for fputc
    printfb.o(i.__0printf$bare) refers to printfb.o(i._printf_core) for _printf_core
    printfb.o(i.__0printf$bare) refers to fputc.o(i.fputc) for fputc
    printfb.o(i.__0printf$bare) refers to stdout.o(.data) for __stdout
    printfb.o(i.__0snprintf$bare) refers to printfb.o(i._printf_core) for _printf_core
    printfb.o(i.__0snprintf$bare) refers to printfb.o(i._snputc) for _snputc
    printfb.o(i.__0sprintf$bare) refers to printfb.o(i._printf_core) for _printf_core
    printfb.o(i.__0sprintf$bare) refers to printfb.o(i._sputc) for _sputc
    printfb.o(i.__0vfprintf$bare) refers to printfb.o(i._printf_core) for _printf_core
    printfb.o(i.__0vfprintf$bare) refers to fputc.o(i.fputc) for fputc
    printfb.o(i.__0vprintf$bare) refers to printfb.o(i._printf_core) for _printf_core
    printfb.o(i.__0vprintf$bare) refers to fputc.o(i.fputc) for fputc
    printfb.o(i.__0vprintf$bare) refers to stdout.o(.data) for __stdout
    printfb.o(i.__0vsnprintf$bare) refers to printfb.o(i._printf_core) for _printf_core
    printfb.o(i.__0vsnprintf$bare) refers to printfb.o(i._snputc) for _snputc
    printfb.o(i.__0vsprintf$bare) refers to printfb.o(i._printf_core) for _printf_core
    printfb.o(i.__0vsprintf$bare) refers to printfb.o(i._sputc) for _sputc
    printf0.o(i.__0fprintf$0) refers to printf0.o(i._printf_core) for _printf_core
    printf0.o(i.__0fprintf$0) refers to fputc.o(i.fputc) for fputc
    printf0.o(i.__0printf$0) refers to printf0.o(i._printf_core) for _printf_core
    printf0.o(i.__0printf$0) refers to fputc.o(i.fputc) for fputc
    printf0.o(i.__0printf$0) refers to stdout.o(.data) for __stdout
    printf0.o(i.__0snprintf$0) refers to printf0.o(i._printf_core) for _printf_core
    printf0.o(i.__0snprintf$0) refers to printf0.o(i._snputc) for _snputc
    printf0.o(i.__0sprintf$0) refers to printf0.o(i._printf_core) for _printf_core
    printf0.o(i.__0sprintf$0) refers to printf0.o(i._sputc) for _sputc
    printf0.o(i.__0vfprintf$0) refers to printf0.o(i._printf_core) for _printf_core
    printf0.o(i.__0vfprintf$0) refers to fputc.o(i.fputc) for fputc
    printf0.o(i.__0vprintf$0) refers to printf0.o(i._printf_core) for _printf_core
    printf0.o(i.__0vprintf$0) refers to fputc.o(i.fputc) for fputc
    printf0.o(i.__0vprintf$0) refers to stdout.o(.data) for __stdout
    printf0.o(i.__0vsnprintf$0) refers to printf0.o(i._printf_core) for _printf_core
    printf0.o(i.__0vsnprintf$0) refers to printf0.o(i._snputc) for _snputc
    printf0.o(i.__0vsprintf$0) refers to printf0.o(i._printf_core) for _printf_core
    printf0.o(i.__0vsprintf$0) refers to printf0.o(i._sputc) for _sputc
    printf1.o(i.__0fprintf$1) refers to printf1.o(i._printf_core) for _printf_core
    printf1.o(i.__0fprintf$1) refers to fputc.o(i.fputc) for fputc
    printf1.o(i.__0printf$1) refers to printf1.o(i._printf_core) for _printf_core
    printf1.o(i.__0printf$1) refers to fputc.o(i.fputc) for fputc
    printf1.o(i.__0printf$1) refers to stdout.o(.data) for __stdout
    printf1.o(i.__0snprintf$1) refers to printf1.o(i._printf_core) for _printf_core
    printf1.o(i.__0snprintf$1) refers to printf1.o(i._snputc) for _snputc
    printf1.o(i.__0sprintf$1) refers to printf1.o(i._printf_core) for _printf_core
    printf1.o(i.__0sprintf$1) refers to printf1.o(i._sputc) for _sputc
    printf1.o(i.__0vfprintf$1) refers to printf1.o(i._printf_core) for _printf_core
    printf1.o(i.__0vfprintf$1) refers to fputc.o(i.fputc) for fputc
    printf1.o(i.__0vprintf$1) refers to printf1.o(i._printf_core) for _printf_core
    printf1.o(i.__0vprintf$1) refers to fputc.o(i.fputc) for fputc
    printf1.o(i.__0vprintf$1) refers to stdout.o(.data) for __stdout
    printf1.o(i.__0vsnprintf$1) refers to printf1.o(i._printf_core) for _printf_core
    printf1.o(i.__0vsnprintf$1) refers to printf1.o(i._snputc) for _snputc
    printf1.o(i.__0vsprintf$1) refers to printf1.o(i._printf_core) for _printf_core
    printf1.o(i.__0vsprintf$1) refers to printf1.o(i._sputc) for _sputc
    printf1.o(i._printf_core) refers to uidiv.o(.text) for __aeabi_uidivmod
    printf2.o(i.__0fprintf$2) refers to printf2.o(i._printf_core) for _printf_core
    printf2.o(i.__0fprintf$2) refers to fputc.o(i.fputc) for fputc
    printf2.o(i.__0printf$2) refers to printf2.o(i._printf_core) for _printf_core
    printf2.o(i.__0printf$2) refers to fputc.o(i.fputc) for fputc
    printf2.o(i.__0printf$2) refers to stdout.o(.data) for __stdout
    printf2.o(i.__0snprintf$2) refers to printf2.o(i._printf_core) for _printf_core
    printf2.o(i.__0snprintf$2) refers to printf2.o(i._snputc) for _snputc
    printf2.o(i.__0sprintf$2) refers to printf2.o(i._printf_core) for _printf_core
    printf2.o(i.__0sprintf$2) refers to printf2.o(i._sputc) for _sputc
    printf2.o(i.__0vfprintf$2) refers to printf2.o(i._printf_core) for _printf_core
    printf2.o(i.__0vfprintf$2) refers to fputc.o(i.fputc) for fputc
    printf2.o(i.__0vprintf$2) refers to printf2.o(i._printf_core) for _printf_core
    printf2.o(i.__0vprintf$2) refers to fputc.o(i.fputc) for fputc
    printf2.o(i.__0vprintf$2) refers to stdout.o(.data) for __stdout
    printf2.o(i.__0vsnprintf$2) refers to printf2.o(i._printf_core) for _printf_core
    printf2.o(i.__0vsnprintf$2) refers to printf2.o(i._snputc) for _snputc
    printf2.o(i.__0vsprintf$2) refers to printf2.o(i._printf_core) for _printf_core
    printf2.o(i.__0vsprintf$2) refers to printf2.o(i._sputc) for _sputc
    printf3.o(i.__0fprintf$3) refers to printf3.o(i._printf_core) for _printf_core
    printf3.o(i.__0fprintf$3) refers to fputc.o(i.fputc) for fputc
    printf3.o(i.__0printf$3) refers to printf3.o(i._printf_core) for _printf_core
    printf3.o(i.__0printf$3) refers to fputc.o(i.fputc) for fputc
    printf3.o(i.__0printf$3) refers to stdout.o(.data) for __stdout
    printf3.o(i.__0snprintf$3) refers to printf3.o(i._printf_core) for _printf_core
    printf3.o(i.__0snprintf$3) refers to printf3.o(i._snputc) for _snputc
    printf3.o(i.__0sprintf$3) refers to printf3.o(i._printf_core) for _printf_core
    printf3.o(i.__0sprintf$3) refers to printf3.o(i._sputc) for _sputc
    printf3.o(i.__0vfprintf$3) refers to printf3.o(i._printf_core) for _printf_core
    printf3.o(i.__0vfprintf$3) refers to fputc.o(i.fputc) for fputc
    printf3.o(i.__0vprintf$3) refers to printf3.o(i._printf_core) for _printf_core
    printf3.o(i.__0vprintf$3) refers to fputc.o(i.fputc) for fputc
    printf3.o(i.__0vprintf$3) refers to stdout.o(.data) for __stdout
    printf3.o(i.__0vsnprintf$3) refers to printf3.o(i._printf_core) for _printf_core
    printf3.o(i.__0vsnprintf$3) refers to printf3.o(i._snputc) for _snputc
    printf3.o(i.__0vsprintf$3) refers to printf3.o(i._printf_core) for _printf_core
    printf3.o(i.__0vsprintf$3) refers to printf3.o(i._sputc) for _sputc
    printf3.o(i._printf_core) refers to uidiv.o(.text) for __aeabi_uidivmod
    printf4.o(i.__0fprintf$4) refers to printf4.o(i._printf_core) for _printf_core
    printf4.o(i.__0fprintf$4) refers to fputc.o(i.fputc) for fputc
    printf4.o(i.__0printf$4) refers to printf4.o(i._printf_core) for _printf_core
    printf4.o(i.__0printf$4) refers to fputc.o(i.fputc) for fputc
    printf4.o(i.__0printf$4) refers to stdout.o(.data) for __stdout
    printf4.o(i.__0snprintf$4) refers to printf4.o(i._printf_core) for _printf_core
    printf4.o(i.__0snprintf$4) refers to printf4.o(i._snputc) for _snputc
    printf4.o(i.__0sprintf$4) refers to printf4.o(i._printf_core) for _printf_core
    printf4.o(i.__0sprintf$4) refers to printf4.o(i._sputc) for _sputc
    printf4.o(i.__0vfprintf$4) refers to printf4.o(i._printf_core) for _printf_core
    printf4.o(i.__0vfprintf$4) refers to fputc.o(i.fputc) for fputc
    printf4.o(i.__0vprintf$4) refers to printf4.o(i._printf_core) for _printf_core
    printf4.o(i.__0vprintf$4) refers to fputc.o(i.fputc) for fputc
    printf4.o(i.__0vprintf$4) refers to stdout.o(.data) for __stdout
    printf4.o(i.__0vsnprintf$4) refers to printf4.o(i._printf_core) for _printf_core
    printf4.o(i.__0vsnprintf$4) refers to printf4.o(i._snputc) for _snputc
    printf4.o(i.__0vsprintf$4) refers to printf4.o(i._printf_core) for _printf_core
    printf4.o(i.__0vsprintf$4) refers to printf4.o(i._sputc) for _sputc
    printf4.o(i._printf_core) refers to uldiv.o(.text) for __aeabi_uldivmod
    printf5.o(i.__0fprintf$5) refers to printf5.o(i._printf_core) for _printf_core
    printf5.o(i.__0fprintf$5) refers to fputc.o(i.fputc) for fputc
    printf5.o(i.__0printf$5) refers to printf5.o(i._printf_core) for _printf_core
    printf5.o(i.__0printf$5) refers to fputc.o(i.fputc) for fputc
    printf5.o(i.__0printf$5) refers to stdout.o(.data) for __stdout
    printf5.o(i.__0snprintf$5) refers to printf5.o(i._printf_core) for _printf_core
    printf5.o(i.__0snprintf$5) refers to printf5.o(i._snputc) for _snputc
    printf5.o(i.__0sprintf$5) refers to printf5.o(i._printf_core) for _printf_core
    printf5.o(i.__0sprintf$5) refers to printf5.o(i._sputc) for _sputc
    printf5.o(i.__0vfprintf$5) refers to printf5.o(i._printf_core) for _printf_core
    printf5.o(i.__0vfprintf$5) refers to fputc.o(i.fputc) for fputc
    printf5.o(i.__0vprintf$5) refers to printf5.o(i._printf_core) for _printf_core
    printf5.o(i.__0vprintf$5) refers to fputc.o(i.fputc) for fputc
    printf5.o(i.__0vprintf$5) refers to stdout.o(.data) for __stdout
    printf5.o(i.__0vsnprintf$5) refers to printf5.o(i._printf_core) for _printf_core
    printf5.o(i.__0vsnprintf$5) refers to printf5.o(i._snputc) for _snputc
    printf5.o(i.__0vsprintf$5) refers to printf5.o(i._printf_core) for _printf_core
    printf5.o(i.__0vsprintf$5) refers to printf5.o(i._sputc) for _sputc
    printf5.o(i._printf_core) refers to uldiv.o(.text) for __aeabi_uldivmod
    printf6.o(i.__0fprintf$6) refers to printf6.o(i._printf_core) for _printf_core
    printf6.o(i.__0fprintf$6) refers to fputc.o(i.fputc) for fputc
    printf6.o(i.__0printf$6) refers to printf6.o(i._printf_core) for _printf_core
    printf6.o(i.__0printf$6) refers to fputc.o(i.fputc) for fputc
    printf6.o(i.__0printf$6) refers to stdout.o(.data) for __stdout
    printf6.o(i.__0snprintf$6) refers to printf6.o(i._printf_core) for _printf_core
    printf6.o(i.__0snprintf$6) refers to printf6.o(i._snputc) for _snputc
    printf6.o(i.__0sprintf$6) refers to printf6.o(i._printf_core) for _printf_core
    printf6.o(i.__0sprintf$6) refers to printf6.o(i._sputc) for _sputc
    printf6.o(i.__0vfprintf$6) refers to printf6.o(i._printf_core) for _printf_core
    printf6.o(i.__0vfprintf$6) refers to fputc.o(i.fputc) for fputc
    printf6.o(i.__0vprintf$6) refers to printf6.o(i._printf_core) for _printf_core
    printf6.o(i.__0vprintf$6) refers to fputc.o(i.fputc) for fputc
    printf6.o(i.__0vprintf$6) refers to stdout.o(.data) for __stdout
    printf6.o(i.__0vsnprintf$6) refers to printf6.o(i._printf_core) for _printf_core
    printf6.o(i.__0vsnprintf$6) refers to printf6.o(i._snputc) for _snputc
    printf6.o(i.__0vsprintf$6) refers to printf6.o(i._printf_core) for _printf_core
    printf6.o(i.__0vsprintf$6) refers to printf6.o(i._sputc) for _sputc
    printf6.o(i._printf_core) refers to printf6.o(i._printf_pre_padding) for _printf_pre_padding
    printf6.o(i._printf_core) refers to uidiv.o(.text) for __aeabi_uidivmod
    printf6.o(i._printf_core) refers to printf6.o(i._printf_post_padding) for _printf_post_padding
    printf7.o(i.__0fprintf$7) refers to printf7.o(i._printf_core) for _printf_core
    printf7.o(i.__0fprintf$7) refers to fputc.o(i.fputc) for fputc
    printf7.o(i.__0printf$7) refers to printf7.o(i._printf_core) for _printf_core
    printf7.o(i.__0printf$7) refers to fputc.o(i.fputc) for fputc
    printf7.o(i.__0printf$7) refers to stdout.o(.data) for __stdout
    printf7.o(i.__0snprintf$7) refers to printf7.o(i._printf_core) for _printf_core
    printf7.o(i.__0snprintf$7) refers to printf7.o(i._snputc) for _snputc
    printf7.o(i.__0sprintf$7) refers to printf7.o(i._printf_core) for _printf_core
    printf7.o(i.__0sprintf$7) refers to printf7.o(i._sputc) for _sputc
    printf7.o(i.__0vfprintf$7) refers to printf7.o(i._printf_core) for _printf_core
    printf7.o(i.__0vfprintf$7) refers to fputc.o(i.fputc) for fputc
    printf7.o(i.__0vprintf$7) refers to printf7.o(i._printf_core) for _printf_core
    printf7.o(i.__0vprintf$7) refers to fputc.o(i.fputc) for fputc
    printf7.o(i.__0vprintf$7) refers to stdout.o(.data) for __stdout
    printf7.o(i.__0vsnprintf$7) refers to printf7.o(i._printf_core) for _printf_core
    printf7.o(i.__0vsnprintf$7) refers to printf7.o(i._snputc) for _snputc
    printf7.o(i.__0vsprintf$7) refers to printf7.o(i._printf_core) for _printf_core
    printf7.o(i.__0vsprintf$7) refers to printf7.o(i._sputc) for _sputc
    printf7.o(i._printf_core) refers to printf7.o(i._printf_pre_padding) for _printf_pre_padding
    printf7.o(i._printf_core) refers to uldiv.o(.text) for __aeabi_uldivmod
    printf7.o(i._printf_core) refers to printf7.o(i._printf_post_padding) for _printf_post_padding
    printf8.o(i.__0fprintf$8) refers to printf8.o(i._printf_core) for _printf_core
    printf8.o(i.__0fprintf$8) refers to fputc.o(i.fputc) for fputc
    printf8.o(i.__0printf$8) refers to printf8.o(i._printf_core) for _printf_core
    printf8.o(i.__0printf$8) refers to fputc.o(i.fputc) for fputc
    printf8.o(i.__0printf$8) refers to stdout.o(.data) for __stdout
    printf8.o(i.__0snprintf$8) refers to printf8.o(i._printf_core) for _printf_core
    printf8.o(i.__0snprintf$8) refers to printf8.o(i._snputc) for _snputc
    printf8.o(i.__0sprintf$8) refers to printf8.o(i._printf_core) for _printf_core
    printf8.o(i.__0sprintf$8) refers to printf8.o(i._sputc) for _sputc
    printf8.o(i.__0vfprintf$8) refers to printf8.o(i._printf_core) for _printf_core
    printf8.o(i.__0vfprintf$8) refers to fputc.o(i.fputc) for fputc
    printf8.o(i.__0vprintf$8) refers to printf8.o(i._printf_core) for _printf_core
    printf8.o(i.__0vprintf$8) refers to fputc.o(i.fputc) for fputc
    printf8.o(i.__0vprintf$8) refers to stdout.o(.data) for __stdout
    printf8.o(i.__0vsnprintf$8) refers to printf8.o(i._printf_core) for _printf_core
    printf8.o(i.__0vsnprintf$8) refers to printf8.o(i._snputc) for _snputc
    printf8.o(i.__0vsprintf$8) refers to printf8.o(i._printf_core) for _printf_core
    printf8.o(i.__0vsprintf$8) refers to printf8.o(i._sputc) for _sputc
    printf8.o(i._printf_core) refers to printf8.o(i._printf_pre_padding) for _printf_pre_padding
    printf8.o(i._printf_core) refers to uldiv.o(.text) for __aeabi_uldivmod
    printf8.o(i._printf_core) refers to printf8.o(i._printf_post_padding) for _printf_post_padding
    printfa.o(i.__0fprintf) refers (Special) to iusefp.o(.text) for __I$use$fp
    printfa.o(i.__0fprintf) refers to printfa.o(i._printf_core) for _printf_core
    printfa.o(i.__0fprintf) refers to fputc.o(i.fputc) for fputc
    printfa.o(i.__0printf) refers (Special) to iusefp.o(.text) for __I$use$fp
    printfa.o(i.__0printf) refers to printfa.o(i._printf_core) for _printf_core
    printfa.o(i.__0printf) refers to fputc.o(i.fputc) for fputc
    printfa.o(i.__0printf) refers to stdout.o(.data) for __stdout
    printfa.o(i.__0snprintf) refers (Special) to iusefp.o(.text) for __I$use$fp
    printfa.o(i.__0snprintf) refers to printfa.o(i._printf_core) for _printf_core
    printfa.o(i.__0snprintf) refers to printfa.o(i._snputc) for _snputc
    printfa.o(i.__0sprintf) refers (Special) to iusefp.o(.text) for __I$use$fp
    printfa.o(i.__0sprintf) refers to printfa.o(i._printf_core) for _printf_core
    printfa.o(i.__0sprintf) refers to printfa.o(i._sputc) for _sputc
    printfa.o(i.__0vfprintf) refers (Special) to iusefp.o(.text) for __I$use$fp
    printfa.o(i.__0vfprintf) refers to printfa.o(i._printf_core) for _printf_core
    printfa.o(i.__0vfprintf) refers to fputc.o(i.fputc) for fputc
    printfa.o(i.__0vprintf) refers (Special) to iusefp.o(.text) for __I$use$fp
    printfa.o(i.__0vprintf) refers to printfa.o(i._printf_core) for _printf_core
    printfa.o(i.__0vprintf) refers to fputc.o(i.fputc) for fputc
    printfa.o(i.__0vprintf) refers to stdout.o(.data) for __stdout
    printfa.o(i.__0vsnprintf) refers (Special) to iusefp.o(.text) for __I$use$fp
    printfa.o(i.__0vsnprintf) refers to printfa.o(i._printf_core) for _printf_core
    printfa.o(i.__0vsnprintf) refers to printfa.o(i._snputc) for _snputc
    printfa.o(i.__0vsprintf) refers (Special) to iusefp.o(.text) for __I$use$fp
    printfa.o(i.__0vsprintf) refers to printfa.o(i._printf_core) for _printf_core
    printfa.o(i.__0vsprintf) refers to printfa.o(i._sputc) for _sputc
    printfa.o(i._fp_digits) refers (Special) to iusefp.o(.text) for __I$use$fp
    printfa.o(i._fp_digits) refers to dmul.o(.text) for __aeabi_dmul
    printfa.o(i._fp_digits) refers to ddiv.o(.text) for __aeabi_ddiv
    printfa.o(i._fp_digits) refers to cdrcmple.o(.text) for __aeabi_cdrcmple
    printfa.o(i._fp_digits) refers to dadd.o(.text) for __aeabi_dadd
    printfa.o(i._fp_digits) refers to dfixul.o(.text) for __aeabi_d2ulz
    printfa.o(i._fp_digits) refers to uldiv.o(.text) for __aeabi_uldivmod
    printfa.o(i._printf_core) refers (Special) to iusefp.o(.text) for __I$use$fp
    printfa.o(i._printf_core) refers to printfa.o(i._printf_pre_padding) for _printf_pre_padding
    printfa.o(i._printf_core) refers to uldiv.o(.text) for __aeabi_uldivmod
    printfa.o(i._printf_core) refers to printfa.o(i._printf_post_padding) for _printf_post_padding
    printfa.o(i._printf_core) refers to printfa.o(i._fp_digits) for _fp_digits
    printfa.o(i._printf_core) refers to uidiv.o(.text) for __aeabi_uidivmod
    printfa.o(i._printf_post_padding) refers (Special) to iusefp.o(.text) for __I$use$fp
    printfa.o(i._printf_pre_padding) refers (Special) to iusefp.o(.text) for __I$use$fp
    printfa.o(i._snputc) refers (Special) to iusefp.o(.text) for __I$use$fp
    printfa.o(i._sputc) refers (Special) to iusefp.o(.text) for __I$use$fp
    malloc.o(i.free) refers to mvars.o(.data) for __microlib_freelist
    malloc.o(i.malloc) refers to mvars.o(.data) for __microlib_freelist_initialised
    malloc.o(i.malloc) refers to mvars.o(.data) for __microlib_freelist
    malloc.o(i.malloc) refers to startup_stm32f429xx.o(HEAP) for __heap_base
    mallocr.o(i.__free$realloc) refers to mvars.o(.data) for __microlib_freelist
    mallocr.o(i.__malloc$realloc) refers to mallocr.o(i.internal_alloc) for internal_alloc
    mallocr.o(i.__malloc$realloc) refers to mvars.o(.data) for __microlib_freelist_initialised
    mallocr.o(i.__malloc$realloc) refers to startup_stm32f429xx.o(HEAP) for __heap_base
    mallocr.o(i.__malloc$realloc) refers to mvars.o(.data) for __microlib_freelist
    mallocr.o(i.internal_alloc) refers to memcpya.o(.text) for __aeabi_memcpy
    mallocr.o(i.internal_alloc) refers to mvars.o(.data) for __microlib_freelist
    mallocr.o(i.realloc) refers to mallocr.o(i.__free$realloc) for free
    mallocr.o(i.realloc) refers to mallocr.o(i.internal_alloc) for internal_alloc
    mallocr.o(i.realloc) refers to mallocr.o(i.__malloc$realloc) for malloc
    mallocr.o(i.realloc) refers to mvars.o(.data) for __microlib_freelist
    malloca.o(i.__aligned_malloc) refers to mvars.o(.data) for __microlib_freelist_initialised
    malloca.o(i.__aligned_malloc) refers to mvars.o(.data) for __microlib_freelist
    malloca.o(i.__aligned_malloc) refers to startup_stm32f429xx.o(HEAP) for __heap_base
    malloca.o(i.__free$memalign) refers to mvars.o(.data) for __microlib_freelist
    malloca.o(i.__malloc$memalign) refers to malloca.o(i.__aligned_malloc) for __aligned_malloc
    mallocra.o(i.__aligned_malloc$realloc) refers to mallocra.o(i.internal_alloc) for internal_alloc
    mallocra.o(i.__aligned_malloc$realloc) refers to mvars.o(.data) for __microlib_freelist_initialised
    mallocra.o(i.__aligned_malloc$realloc) refers to startup_stm32f429xx.o(HEAP) for __heap_base
    mallocra.o(i.__aligned_malloc$realloc) refers to mvars.o(.data) for __microlib_freelist
    mallocra.o(i.__free$realloc$memalign) refers to mvars.o(.data) for __microlib_freelist
    mallocra.o(i.__malloc$realloc$memalign) refers to mallocra.o(i.__aligned_malloc$realloc) for __aligned_malloc$realloc
    mallocra.o(i.__realloc$memalign) refers to mallocra.o(i.__free$realloc$memalign) for __free$realloc$memalign
    mallocra.o(i.__realloc$memalign) refers to mallocra.o(i.internal_alloc) for internal_alloc
    mallocra.o(i.__realloc$memalign) refers to mallocra.o(i.__malloc$realloc$memalign) for __malloc$realloc$memalign
    mallocra.o(i.__realloc$memalign) refers to mvars.o(.data) for __microlib_freelist
    mallocra.o(i.internal_alloc) refers to memcpya.o(.text) for __aeabi_memcpy
    mallocra.o(i.internal_alloc) refers to mvars.o(.data) for __microlib_freelist
    __0sscanf.o(.text) refers to scanf_char.o(.text) for __vfscanf_char
    __0sscanf.o(.text) refers to _sgetc.o(.text) for _sgetc
    scanf_fp.o(.text) refers (Special) to iusefp.o(.text) for __I$use$fp
    scanf_fp.o(.text) refers to dfltul.o(.text) for __aeabi_ul2d
    scanf_fp.o(.text) refers to dmul.o(.text) for __aeabi_dmul
    scanf_fp.o(.text) refers to ddiv.o(.text) for __aeabi_ddiv
    scanf_fp.o(.text) refers to scanf_fp.o(i._is_digit) for _is_digit
    scanf_fp.o(.text) refers to d2f.o(.text) for __aeabi_d2f
    dmul.o(.text) refers (Special) to iusefp.o(.text) for __I$use$fp
    dmul.o(.text) refers to depilogue.o(.text) for _double_epilogue
    dflti.o(.text) refers (Special) to iusefp.o(.text) for __I$use$fp
    dflti.o(.text) refers to depilogue.o(.text) for _double_epilogue
    dfltui.o(.text) refers (Special) to iusefp.o(.text) for __I$use$fp
    dfltui.o(.text) refers to depilogue.o(.text) for _double_epilogue
    dfltul.o(.text) refers (Special) to iusefp.o(.text) for __I$use$fp
    dfltul.o(.text) refers to depilogue.o(.text) for _double_epilogue
    dfixi.o(.text) refers (Special) to iusefp.o(.text) for __I$use$fp
    dfixi.o(.text) refers to llushr.o(.text) for __aeabi_llsr
    dfixui.o(.text) refers (Special) to iusefp.o(.text) for __I$use$fp
    dfixui.o(.text) refers to llushr.o(.text) for __aeabi_llsr
    f2d.o(.text) refers (Special) to iusefp.o(.text) for __I$use$fp
    cdcmple.o(.text) refers (Special) to iusefp.o(.text) for __I$use$fp
    cdrcmple.o(.text) refers (Special) to iusefp.o(.text) for __I$use$fp
    entry2.o(.ARM.Collect$$$$00000001) refers to entry2.o(.ARM.Collect$$$$00002712) for __lit__00000000
    entry2.o(.ARM.Collect$$$$00002712) refers to startup_stm32f429xx.o(STACK) for __initial_sp
    entry2.o(__vectab_stack_and_reset_area) refers to startup_stm32f429xx.o(STACK) for __initial_sp
    entry2.o(__vectab_stack_and_reset_area) refers to entry.o(.ARM.Collect$$$$00000000) for __main
    entry5.o(.ARM.Collect$$$$00000004) refers to init.o(.text) for __scatterload
    entry9a.o(.ARM.Collect$$$$0000000B) refers to main.o(i.main) for main
    entry9b.o(.ARM.Collect$$$$0000000C) refers to main.o(i.main) for main
    fputc.o(i.fputc) refers (Special) to iusesemip.o(.text) for __I$use$semihosting$fputc
    fputc.o(i.fputc) refers (Special) to semi.o(.text) for __semihosting_library_function
    uldiv.o(.text) refers to llushr.o(.text) for __aeabi_llsr
    uldiv.o(.text) refers to llshl.o(.text) for __aeabi_llsl
    scanf_char.o(.text) refers to _scanf.o(.text) for __vfscanf
    scanf_char.o(.text) refers to isspace_c.o(.text) for isspace
    strtod.o(.text) refers to scanf_fp.o(.text) for _scanf_real
    strtod.o(.text) refers to _sgetc.o(.text) for _sgetc
    strtod.o(.text) refers to isspace_c.o(.text) for isspace
    depilogue.o(.text) refers to llshl.o(.text) for __aeabi_llsl
    depilogue.o(.text) refers to llushr.o(.text) for __aeabi_llsr
    dadd.o(.text) refers to llshl.o(.text) for __aeabi_llsl
    dadd.o(.text) refers to llsshr.o(.text) for __aeabi_lasr
    dadd.o(.text) refers to depilogue.o(.text) for _double_epilogue
    ddiv.o(.text) refers to depilogue.o(.text) for _double_round
    dfixul.o(.text) refers to llushr.o(.text) for __aeabi_llsr
    dfixul.o(.text) refers to llshl.o(.text) for __aeabi_llsl
    d2f.o(.text) refers to fepilogue.o(.text) for _float_round
    init.o(.text) refers to entry5.o(.ARM.Collect$$$$00000004) for __main_after_scatterload
    isspace_c.o(.text) refers to ctype_c.o(.text) for __ctype_lookup
    _scanf.o(.text) refers (Weak) to scanf_fp.o(.text) for _scanf_real
    ctype_c.o(.text) refers to ctype_c.o(.constdata) for .constdata
    scanf_fp.o(i._is_digit) refers (Special) to iusefp.o(.text) for __I$use$fp


==============================================================================

Removing Unused input sections from the image.

    Removing sys.o(.rev16_text), (4 bytes).
    Removing sys.o(.revsh_text), (4 bytes).
    Removing sys.o(.rrx_text), (6 bytes).
    Removing sys.o(.emb_text), (6 bytes).
    Removing sys.o(i.Ex_NVIC_Config), (180 bytes).
    Removing sys.o(i.GetIoValue), (12 bytes).
    Removing sys.o(i.INTX_DISABLE), (4 bytes).
    Removing sys.o(i.INTX_ENABLE), (4 bytes).
    Removing sys.o(i.IoInit), (66 bytes).
    Removing sys.o(i.SetIoValue), (28 bytes).
    Removing sys.o(i.Sys_Standby), (76 bytes).
    Removing sys.o(i.WFI_SET), (4 bytes).
    Removing startup_stm32f429xx.o(HEAP), (0 bytes).
    Removing main.o(.rev16_text), (4 bytes).
    Removing main.o(.revsh_text), (4 bytes).
    Removing main.o(.rrx_text), (6 bytes).
    Removing main.o(.data), (8 bytes).
    Removing public.o(.rev16_text), (4 bytes).
    Removing public.o(.revsh_text), (4 bytes).
    Removing public.o(.rrx_text), (6 bytes).
    Removing public.o(i.BufCopy), (28 bytes).
    Removing netpro.o(.rev16_text), (4 bytes).
    Removing netpro.o(.revsh_text), (4 bytes).
    Removing netpro.o(.rrx_text), (6 bytes).
    Removing netpro.o(i.NetOnlineCheck), (80 bytes).
    Removing netpro.o(i.TcpSocket0Recv), (20 bytes).
    Removing netpro.o(i.TcpSocket1Recv), (20 bytes).
    Removing config.o(.rev16_text), (4 bytes).
    Removing config.o(.revsh_text), (4 bytes).
    Removing config.o(.rrx_text), (6 bytes).
    Removing config.o(i.WriteConfig), (48 bytes).
    Removing iappro.o(.rev16_text), (4 bytes).
    Removing iappro.o(.revsh_text), (4 bytes).
    Removing iappro.o(.rrx_text), (6 bytes).
    Removing w5500spi.o(.rev16_text), (4 bytes).
    Removing w5500spi.o(.revsh_text), (4 bytes).
    Removing w5500spi.o(.rrx_text), (6 bytes).
    Removing rng.o(.rev16_text), (4 bytes).
    Removing rng.o(.revsh_text), (4 bytes).
    Removing rng.o(.rrx_text), (6 bytes).
    Removing rng.o(i.RNG_Get_RandomRange), (24 bytes).
    Removing mcu.o(.rev16_text), (4 bytes).
    Removing mcu.o(.revsh_text), (4 bytes).
    Removing mcu.o(.rrx_text), (6 bytes).
    Removing mcu.o(i.SecTickDiff), (36 bytes).
    Removing mcu.o(i.delay_10ns), (12 bytes).
    Removing sdram.o(.rev16_text), (4 bytes).
    Removing sdram.o(.revsh_text), (4 bytes).
    Removing sdram.o(.rrx_text), (6 bytes).
    Removing sdram.o(i.FMC_SDRAM_ReadBuffer), (22 bytes).
    Removing sdram.o(i.FMC_SDRAM_WriteBuffer), (24 bytes).
    Removing flash.o(.rev16_text), (4 bytes).
    Removing flash.o(.revsh_text), (4 bytes).
    Removing flash.o(.rrx_text), (6 bytes).
    Removing flash.o(i.Jump2Boot), (48 bytes).
    Removing flash.o(i.STMFLASH_GetStatus), (64 bytes).
    Removing flash.o(i.UpDataAddr), (12 bytes).
    Removing flash.o(i.WriteAppVersionToFlash), (108 bytes).
    Removing flash.o(i.WriteFlash), (100 bytes).
    Removing flash.o(i.WriteMd5ToFlash), (20 bytes).
    Removing socket.o(.rev16_text), (4 bytes).
    Removing socket.o(.revsh_text), (4 bytes).
    Removing socket.o(.rrx_text), (6 bytes).
    Removing socket.o(i.NetAsc2Hex), (60 bytes).
    Removing socket.o(i.SetString2Ip), (110 bytes).
    Removing w5500.o(.rev16_text), (4 bytes).
    Removing w5500.o(.revsh_text), (4 bytes).
    Removing w5500.o(.rrx_text), (6 bytes).
    Removing w5500.o(i.ReadBurstReg), (80 bytes).
    Removing w5500.o(i.ReadReg2Byte), (72 bytes).
    Removing taskmanger.o(.rev16_text), (4 bytes).
    Removing taskmanger.o(.revsh_text), (4 bytes).
    Removing taskmanger.o(.rrx_text), (6 bytes).
    Removing taskmanger.o(i.DelTask), (184 bytes).
    Removing taskmanger.o(i.GetTaskList), (648 bytes).
    Removing taskmanger.o(i.SetTaskDelay), (92 bytes).
    Removing taskmanger.o(.data), (8 bytes).
    Removing malloc.o(.rev16_text), (4 bytes).
    Removing malloc.o(.revsh_text), (4 bytes).
    Removing malloc.o(.rrx_text), (6 bytes).
    Removing cjson.o(.rev16_text), (4 bytes).
    Removing cjson.o(.revsh_text), (4 bytes).
    Removing cjson.o(.rrx_text), (6 bytes).
    Removing cjson.o(i.cJSON_AddItemReferenceToArray), (36 bytes).
    Removing cjson.o(i.cJSON_AddItemReferenceToObject), (48 bytes).
    Removing cjson.o(i.cJSON_Compare), (394 bytes).
    Removing cjson.o(i.cJSON_CreateArray), (24 bytes).
    Removing cjson.o(i.cJSON_CreateBool), (32 bytes).
    Removing cjson.o(i.cJSON_CreateDoubleArray), (106 bytes).
    Removing cjson.o(i.cJSON_CreateFalse), (24 bytes).
    Removing cjson.o(i.cJSON_CreateFloatArray), (128 bytes).
    Removing cjson.o(i.cJSON_CreateIntArray), (118 bytes).
    Removing cjson.o(i.cJSON_CreateNumber), (124 bytes).
    Removing cjson.o(i.cJSON_CreateRaw), (52 bytes).
    Removing cjson.o(i.cJSON_CreateStringArray), (94 bytes).
    Removing cjson.o(i.cJSON_CreateTrue), (24 bytes).
    Removing cjson.o(i.cJSON_DeleteItemFromArray), (22 bytes).
    Removing cjson.o(i.cJSON_DeleteItemFromObject), (22 bytes).
    Removing cjson.o(i.cJSON_DeleteItemFromObjectCaseSensitive), (22 bytes).
    Removing cjson.o(i.cJSON_DetachItemFromArray), (34 bytes).
    Removing cjson.o(i.cJSON_DetachItemFromObject), (26 bytes).
    Removing cjson.o(i.cJSON_DetachItemFromObjectCaseSensitive), (26 bytes).
    Removing cjson.o(i.cJSON_DetachItemViaPointer), (50 bytes).
    Removing cjson.o(i.cJSON_Duplicate), (184 bytes).
    Removing cjson.o(i.cJSON_GetArrayItem), (24 bytes).
    Removing cjson.o(i.cJSON_GetArraySize), (28 bytes).
    Removing cjson.o(i.cJSON_GetErrorPtr), (16 bytes).
    Removing cjson.o(i.cJSON_GetObjectItemCaseSensitive), (18 bytes).
    Removing cjson.o(i.cJSON_HasObjectItem), (24 bytes).
    Removing cjson.o(i.cJSON_InitHooks), (100 bytes).
    Removing cjson.o(i.cJSON_InsertItemInArray), (68 bytes).
    Removing cjson.o(i.cJSON_IsArray), (22 bytes).
    Removing cjson.o(i.cJSON_IsBool), (24 bytes).
    Removing cjson.o(i.cJSON_IsFalse), (20 bytes).
    Removing cjson.o(i.cJSON_IsInvalid), (20 bytes).
    Removing cjson.o(i.cJSON_IsNull), (22 bytes).
    Removing cjson.o(i.cJSON_IsNumber), (22 bytes).
    Removing cjson.o(i.cJSON_IsObject), (22 bytes).
    Removing cjson.o(i.cJSON_IsRaw), (22 bytes).
    Removing cjson.o(i.cJSON_IsString), (22 bytes).
    Removing cjson.o(i.cJSON_IsTrue), (22 bytes).
    Removing cjson.o(i.cJSON_Minify), (192 bytes).
    Removing cjson.o(i.cJSON_Print), (20 bytes).
    Removing cjson.o(i.cJSON_PrintBuffered), (96 bytes).
    Removing cjson.o(i.cJSON_PrintPreallocated), (68 bytes).
    Removing cjson.o(i.cJSON_ReplaceItemInArray), (42 bytes).
    Removing cjson.o(i.cJSON_ReplaceItemInObject), (22 bytes).
    Removing cjson.o(i.cJSON_ReplaceItemInObjectCaseSensitive), (22 bytes).
    Removing cjson.o(i.cJSON_ReplaceItemViaPointer), (74 bytes).
    Removing cjson.o(i.cJSON_SetNumberHelper), (112 bytes).
    Removing cjson.o(i.cJSON_Version), (40 bytes).
    Removing cjson.o(i.cJSON_free), (20 bytes).
    Removing cjson.o(i.cJSON_malloc), (20 bytes).
    Removing cjson.o(i.create_reference), (60 bytes).
    Removing cjson.o(i.get_array_item), (30 bytes).
    Removing cjson.o(i.replace_item_in_object), (88 bytes).
    Removing cjson.o(i.suffix_object), (6 bytes).
    Removing cjson.o(.bss), (15 bytes).
    Removing crcmaker.o(.rev16_text), (4 bytes).
    Removing crcmaker.o(.revsh_text), (4 bytes).
    Removing crcmaker.o(.rrx_text), (6 bytes).
    Removing crcmaker.o(i.SetCrc16), (30 bytes).
    Removing crcmaker.o(i.SumAll), (28 bytes).
    Removing crcmaker.o(i.SumCheck), (34 bytes).
    Removing fminit.o(.rev16_text), (4 bytes).
    Removing fminit.o(.revsh_text), (4 bytes).
    Removing fminit.o(.rrx_text), (6 bytes).
    Removing databean.o(.rev16_text), (4 bytes).
    Removing databean.o(.revsh_text), (4 bytes).
    Removing databean.o(.rrx_text), (6 bytes).
    Removing dflti.o(.text), (34 bytes).
    Removing dfltui.o(.text), (26 bytes).
    Removing f2d.o(.text), (38 bytes).

153 unused section(s) (total 5777 bytes) removed from the image.

==============================================================================

Image Symbol Table

    Local Symbols

    Symbol Name                              Value     Ov Type        Size  Object(Section)

    ../clib/microlib/ctype/ctype.c           0x00000000   Number         0  isspace_c.o ABSOLUTE
    ../clib/microlib/ctype/ctype.c           0x00000000   Number         0  ctype_c.o ABSOLUTE
    ../clib/microlib/ctype/tolower.c         0x00000000   Number         0  tolower.o ABSOLUTE
    ../clib/microlib/division.c              0x00000000   Number         0  uidiv.o ABSOLUTE
    ../clib/microlib/division.c              0x00000000   Number         0  uldiv.o ABSOLUTE
    ../clib/microlib/init/entry.s            0x00000000   Number         0  entry.o ABSOLUTE
    ../clib/microlib/init/entry.s            0x00000000   Number         0  entry10a.o ABSOLUTE
    ../clib/microlib/init/entry.s            0x00000000   Number         0  entry11b.o ABSOLUTE
    ../clib/microlib/init/entry.s            0x00000000   Number         0  entry5.o ABSOLUTE
    ../clib/microlib/init/entry.s            0x00000000   Number         0  entry11a.o ABSOLUTE
    ../clib/microlib/init/entry.s            0x00000000   Number         0  entry10b.o ABSOLUTE
    ../clib/microlib/init/entry.s            0x00000000   Number         0  entry9b.o ABSOLUTE
    ../clib/microlib/init/entry.s            0x00000000   Number         0  entry9a.o ABSOLUTE
    ../clib/microlib/init/entry.s            0x00000000   Number         0  entry8a.o ABSOLUTE
    ../clib/microlib/init/entry.s            0x00000000   Number         0  entry8b.o ABSOLUTE
    ../clib/microlib/init/entry.s            0x00000000   Number         0  entry2.o ABSOLUTE
    ../clib/microlib/init/entry.s            0x00000000   Number         0  entry7b.o ABSOLUTE
    ../clib/microlib/init/entry.s            0x00000000   Number         0  entry7a.o ABSOLUTE
    ../clib/microlib/longlong.c              0x00000000   Number         0  llushr.o ABSOLUTE
    ../clib/microlib/longlong.c              0x00000000   Number         0  llsshr.o ABSOLUTE
    ../clib/microlib/longlong.c              0x00000000   Number         0  llshl.o ABSOLUTE
    ../clib/microlib/malloc/malloc.c         0x00000000   Number         0  mallocra.o ABSOLUTE
    ../clib/microlib/malloc/malloc.c         0x00000000   Number         0  malloc.o ABSOLUTE
    ../clib/microlib/malloc/malloc.c         0x00000000   Number         0  mallocr.o ABSOLUTE
    ../clib/microlib/malloc/malloc.c         0x00000000   Number         0  malloca.o ABSOLUTE
    ../clib/microlib/malloc/mvars.c          0x00000000   Number         0  mvars.o ABSOLUTE
    ../clib/microlib/printf/printf.c         0x00000000   Number         0  printf1.o ABSOLUTE
    ../clib/microlib/printf/printf.c         0x00000000   Number         0  printf2.o ABSOLUTE
    ../clib/microlib/printf/printf.c         0x00000000   Number         0  printfb.o ABSOLUTE
    ../clib/microlib/printf/printf.c         0x00000000   Number         0  printf3.o ABSOLUTE
    ../clib/microlib/printf/printf.c         0x00000000   Number         0  printf5.o ABSOLUTE
    ../clib/microlib/printf/printf.c         0x00000000   Number         0  printf0.o ABSOLUTE
    ../clib/microlib/printf/printf.c         0x00000000   Number         0  printf7.o ABSOLUTE
    ../clib/microlib/printf/printf.c         0x00000000   Number         0  printf8.o ABSOLUTE
    ../clib/microlib/printf/printf.c         0x00000000   Number         0  printfa.o ABSOLUTE
    ../clib/microlib/printf/printf.c         0x00000000   Number         0  printf4.o ABSOLUTE
    ../clib/microlib/printf/printf.c         0x00000000   Number         0  printf6.o ABSOLUTE
    ../clib/microlib/printf/stubs.s          0x00000000   Number         0  stubs.o ABSOLUTE
    ../clib/microlib/stdio/fputc.c           0x00000000   Number         0  fputc.o ABSOLUTE
    ../clib/microlib/stdio/semi.s            0x00000000   Number         0  semi.o ABSOLUTE
    ../clib/microlib/stdio/streams.c         0x00000000   Number         0  stdout.o ABSOLUTE
    ../clib/microlib/string/memcpy.c         0x00000000   Number         0  memcpya.o ABSOLUTE
    ../clib/microlib/string/memcpy.c         0x00000000   Number         0  memcpyb.o ABSOLUTE
    ../clib/microlib/string/memset.c         0x00000000   Number         0  memseta.o ABSOLUTE
    ../clib/microlib/string/strcmp.c         0x00000000   Number         0  strcmp.o ABSOLUTE
    ../clib/microlib/string/strcpy.c         0x00000000   Number         0  strcpy.o ABSOLUTE
    ../clib/microlib/string/strlen.c         0x00000000   Number         0  strlen.o ABSOLUTE
    ../clib/microlib/string/strncmp.c        0x00000000   Number         0  strncmp.o ABSOLUTE
    ../clib/microlib/stubs.s                 0x00000000   Number         0  iusesemip.o ABSOLUTE
    ../clib/microlib/stubs.s                 0x00000000   Number         0  iusefp.o ABSOLUTE
    ../clib/scanf.c                          0x00000000   Number         0  scanf_char.o ABSOLUTE
    ../clib/scanf.c                          0x00000000   Number         0  __0sscanf.o ABSOLUTE
    ../clib/scanf.c                          0x00000000   Number         0  scanf_fp.o ABSOLUTE
    ../clib/scanf.c                          0x00000000   Number         0  _scanf.o ABSOLUTE
    ../clib/scanf.c                          0x00000000   Number         0  strtod.o ABSOLUTE
    ../clib/scanf.c                          0x00000000   Number         0  _sgetc.o ABSOLUTE
    ../fplib/microlib/d2f.c                  0x00000000   Number         0  d2f.o ABSOLUTE
    ../fplib/microlib/f2d.c                  0x00000000   Number         0  f2d.o ABSOLUTE
    ../fplib/microlib/fpadd.c                0x00000000   Number         0  dadd.o ABSOLUTE
    ../fplib/microlib/fpdiv.c                0x00000000   Number         0  ddiv.o ABSOLUTE
    ../fplib/microlib/fpepilogue.c           0x00000000   Number         0  fepilogue.o ABSOLUTE
    ../fplib/microlib/fpepilogue.c           0x00000000   Number         0  depilogue.o ABSOLUTE
    ../fplib/microlib/fpfix.c                0x00000000   Number         0  dfixul.o ABSOLUTE
    ../fplib/microlib/fpfix.c                0x00000000   Number         0  dfixui.o ABSOLUTE
    ../fplib/microlib/fpfix.c                0x00000000   Number         0  dfixi.o ABSOLUTE
    ../fplib/microlib/fpflt.c                0x00000000   Number         0  dfltul.o ABSOLUTE
    ../fplib/microlib/fpflt.c                0x00000000   Number         0  dflti.o ABSOLUTE
    ../fplib/microlib/fpflt.c                0x00000000   Number         0  dfltui.o ABSOLUTE
    ../fplib/microlib/fpmul.c                0x00000000   Number         0  dmul.o ABSOLUTE
    ../mathlib/strtod.c                      0x00000000   Number         0  strtod.o ABSOLUTE
    APP\CONFIG\Config.c                      0x00000000   Number         0  config.o ABSOLUTE
    APP\IAPPRO\IapPro.c                      0x00000000   Number         0  iappro.o ABSOLUTE
    APP\NETPRO\NetPro.c                      0x00000000   Number         0  netpro.o ABSOLUTE
    APP\PUBLIC\Public.c                      0x00000000   Number         0  public.o ABSOLUTE
    APP\\CONFIG\\Config.c                    0x00000000   Number         0  config.o ABSOLUTE
    APP\\IAPPRO\\IapPro.c                    0x00000000   Number         0  iappro.o ABSOLUTE
    APP\\NETPRO\\NetPro.c                    0x00000000   Number         0  netpro.o ABSOLUTE
    APP\\PUBLIC\\Public.c                    0x00000000   Number         0  public.o ABSOLUTE
    APP\\main.c                              0x00000000   Number         0  main.o ABSOLUTE
    APP\main.c                               0x00000000   Number         0  main.o ABSOLUTE
    BEAN\DATABEAN\DataBean.c                 0x00000000   Number         0  databean.o ABSOLUTE
    BEAN\\DATABEAN\\DataBean.c               0x00000000   Number         0  databean.o ABSOLUTE
    HARDWARE\Mcu\Mcu.c                       0x00000000   Number         0  mcu.o ABSOLUTE
    HARDWARE\RNG\rng.c                       0x00000000   Number         0  rng.o ABSOLUTE
    HARDWARE\SDRAM\sdram.c                   0x00000000   Number         0  sdram.o ABSOLUTE
    HARDWARE\STMFLASH\Flash.c                0x00000000   Number         0  flash.o ABSOLUTE
    HARDWARE\W5500SPI\W5500Spi.c             0x00000000   Number         0  w5500spi.o ABSOLUTE
    HARDWARE\\Mcu\\Mcu.c                     0x00000000   Number         0  mcu.o ABSOLUTE
    HARDWARE\\RNG\\rng.c                     0x00000000   Number         0  rng.o ABSOLUTE
    HARDWARE\\SDRAM\\sdram.c                 0x00000000   Number         0  sdram.o ABSOLUTE
    HARDWARE\\STMFLASH\\Flash.c              0x00000000   Number         0  flash.o ABSOLUTE
    HARDWARE\\W5500SPI\\W5500Spi.c           0x00000000   Number         0  w5500spi.o ABSOLUTE
    MB85RC256\FmInit.c                       0x00000000   Number         0  fminit.o ABSOLUTE
    MB85RC256\\FmInit.c                      0x00000000   Number         0  fminit.o ABSOLUTE
    SYSTEM\\sys.c                            0x00000000   Number         0  sys.o ABSOLUTE
    SYSTEM\startup_stm32f429xx.s             0x00000000   Number         0  startup_stm32f429xx.o ABSOLUTE
    SYSTEM\sys.c                             0x00000000   Number         0  sys.o ABSOLUTE
    TOOLS\CRCMAKER\CrcMaker.c                0x00000000   Number         0  crcmaker.o ABSOLUTE
    TOOLS\JSON\cJSON.c                       0x00000000   Number         0  cjson.o ABSOLUTE
    TOOLS\MALLOC\malloc.c                    0x00000000   Number         0  malloc.o ABSOLUTE
    TOOLS\TASKMANGER\TaskManger.c            0x00000000   Number         0  taskmanger.o ABSOLUTE
    TOOLS\\CRCMAKER\\CrcMaker.c              0x00000000   Number         0  crcmaker.o ABSOLUTE
    TOOLS\\JSON\\cJSON.c                     0x00000000   Number         0  cjson.o ABSOLUTE
    TOOLS\\MALLOC\\malloc.c                  0x00000000   Number         0  malloc.o ABSOLUTE
    TOOLS\\TASKMANGER\\TaskManger.c          0x00000000   Number         0  taskmanger.o ABSOLUTE
    W5500\Socket.c                           0x00000000   Number         0  socket.o ABSOLUTE
    W5500\W5500.c                            0x00000000   Number         0  w5500.o ABSOLUTE
    W5500\\Socket.c                          0x00000000   Number         0  socket.o ABSOLUTE
    W5500\\W5500.c                           0x00000000   Number         0  w5500.o ABSOLUTE
    cdcmple.s                                0x00000000   Number         0  cdcmple.o ABSOLUTE
    cdrcmple.s                               0x00000000   Number         0  cdrcmple.o ABSOLUTE
    dc.s                                     0x00000000   Number         0  dc.o ABSOLUTE
    handlers.s                               0x00000000   Number         0  handlers.o ABSOLUTE
    init.s                                   0x00000000   Number         0  init.o ABSOLUTE
    RESET                                    0x08000000   Section      428  startup_stm32f429xx.o(RESET)
    .ARM.Collect$$$$00000000                 0x080001ac   Section        0  entry.o(.ARM.Collect$$$$00000000)
    .ARM.Collect$$$$00000001                 0x080001ac   Section        4  entry2.o(.ARM.Collect$$$$00000001)
    .ARM.Collect$$$$00000004                 0x080001b0   Section        4  entry5.o(.ARM.Collect$$$$00000004)
    .ARM.Collect$$$$00000008                 0x080001b4   Section        0  entry7b.o(.ARM.Collect$$$$00000008)
    .ARM.Collect$$$$0000000A                 0x080001b4   Section        0  entry8b.o(.ARM.Collect$$$$0000000A)
    .ARM.Collect$$$$0000000B                 0x080001b4   Section        8  entry9a.o(.ARM.Collect$$$$0000000B)
    .ARM.Collect$$$$0000000D                 0x080001bc   Section        0  entry10a.o(.ARM.Collect$$$$0000000D)
    .ARM.Collect$$$$0000000F                 0x080001bc   Section        0  entry11a.o(.ARM.Collect$$$$0000000F)
    .ARM.Collect$$$$00002712                 0x080001bc   Section        4  entry2.o(.ARM.Collect$$$$00002712)
    __lit__00000000                          0x080001bc   Data           4  entry2.o(.ARM.Collect$$$$00002712)
    .text                                    0x080001c0   Section       44  startup_stm32f429xx.o(.text)
    $v0                                      0x080001c0   Number         0  startup_stm32f429xx.o(.text)
    .text                                    0x080001ec   Section        0  tolower.o(.text)
    .text                                    0x080001f8   Section        0  memcpya.o(.text)
    .text                                    0x0800021c   Section        0  memseta.o(.text)
    .text                                    0x08000240   Section        0  strlen.o(.text)
    .text                                    0x0800024e   Section        0  strcmp.o(.text)
    .text                                    0x0800026a   Section        0  strcpy.o(.text)
    .text                                    0x0800027c   Section        0  strncmp.o(.text)
    .text                                    0x0800029c   Section        0  __0sscanf.o(.text)
    .text                                    0x080002d4   Section        0  scanf_fp.o(.text)
    _fp_value                                0x080002d5   Thumb Code   296  scanf_fp.o(.text)
    .text                                    0x08000634   Section        0  dmul.o(.text)
    .text                                    0x08000718   Section        0  dfltul.o(.text)
    .text                                    0x08000730   Section        0  dfixi.o(.text)
    .text                                    0x0800076e   Section        0  dfixui.o(.text)
    .text                                    0x080007a0   Section       48  cdcmple.o(.text)
    .text                                    0x080007d0   Section       48  cdrcmple.o(.text)
    .text                                    0x08000800   Section        0  uidiv.o(.text)
    .text                                    0x0800082c   Section        0  uldiv.o(.text)
    .text                                    0x0800088e   Section        0  llushr.o(.text)
    .text                                    0x080008b0   Section        0  scanf_char.o(.text)
    _scanf_char_input                        0x080008b1   Thumb Code    12  scanf_char.o(.text)
    .text                                    0x080008d8   Section        0  _sgetc.o(.text)
    .text                                    0x08000918   Section        0  strtod.o(.text)
    _local_sscanf                            0x08000919   Thumb Code    54  strtod.o(.text)
    .text                                    0x080009b4   Section        0  iusefp.o(.text)
    .text                                    0x080009b4   Section        0  depilogue.o(.text)
    .text                                    0x08000a6e   Section        0  dadd.o(.text)
    .text                                    0x08000bbc   Section        0  ddiv.o(.text)
    .text                                    0x08000c9a   Section        0  dfixul.o(.text)
    .text                                    0x08000cca   Section        0  d2f.o(.text)
    .text                                    0x08000d04   Section       36  init.o(.text)
    .text                                    0x08000d28   Section        0  llshl.o(.text)
    .text                                    0x08000d46   Section        0  llsshr.o(.text)
    .text                                    0x08000d6a   Section        0  isspace_c.o(.text)
    .text                                    0x08000d74   Section        0  _scanf.o(.text)
    .text                                    0x080010a0   Section        0  fepilogue.o(.text)
    .text                                    0x08001110   Section        0  ctype_c.o(.text)
    i.AppExist                               0x08001138   Section        0  flash.o(i.AppExist)
    i.AppMd5Check                            0x08001160   Section        0  flash.o(i.AppMd5Check)
    i.BufCmp                                 0x08001190   Section        0  public.o(i.BufCmp)
    i.CalCrc16                               0x080011b2   Section        0  crcmaker.o(i.CalCrc16)
    i.CheckCrc16                             0x080011f6   Section        0  crcmaker.o(i.CheckCrc16)
    i.CloseAllSocket                         0x0800122c   Section        0  socket.o(i.CloseAllSocket)
    i.ConfigCheck                            0x08001264   Section        0  config.o(i.ConfigCheck)
    i.CreatUserPort                          0x08001290   Section        0  netpro.o(i.CreatUserPort)
    i.CreateTask                             0x0800131c   Section        0  taskmanger.o(i.CreateTask)
    i.DeleteBean                             0x08001488   Section        0  databean.o(i.DeleteBean)
    i.DisableSocket                          0x08001498   Section        0  socket.o(i.DisableSocket)
    i.EraseApp                               0x080014cc   Section        0  flash.o(i.EraseApp)
    i.ExecTask                               0x0800156c   Section        0  taskmanger.o(i.ExecTask)
    i.FlashBusy                              0x080015f4   Section        0  flash.o(i.FlashBusy)
    i.FmIICAck                               0x0800160c   Section        0  fminit.o(i.FmIICAck)
    i.FmIICNack                              0x0800167c   Section        0  fminit.o(i.FmIICNack)
    i.FmIICReadByte                          0x080016e8   Section        0  fminit.o(i.FmIICReadByte)
    i.FmIICSendByte                          0x08001760   Section        0  fminit.o(i.FmIICSendByte)
    i.FmIICStart                             0x080017fc   Section        0  fminit.o(i.FmIICStart)
    i.FmIICStop                              0x08001874   Section        0  fminit.o(i.FmIICStop)
    i.FmMemoryInit                           0x080018f0   Section        0  fminit.o(i.FmMemoryInit)
    i.FramReadBurstByte                      0x0800199c   Section        0  fminit.o(i.FramReadBurstByte)
    i.FramWriteBurstByte                     0x08001a00   Section        0  fminit.o(i.FramWriteBurstByte)
    i.GPIO_AF_Set                            0x08001a68   Section        0  sys.o(i.GPIO_AF_Set)
    i.GPIO_Set                               0x08001aa8   Section        0  sys.o(i.GPIO_Set)
    i.GetIdleSocket                          0x08001b88   Section        0  socket.o(i.GetIdleSocket)
    i.GetIntSocket                           0x08001bbc   Section        0  socket.o(i.GetIntSocket)
    i.IapDataRecv                            0x08001bec   Section        0  iappro.o(i.IapDataRecv)
    i.IapPro                                 0x08001d68   Section        0  iappro.o(i.IapPro)
    i.Jump2App                               0x08001dc8   Section        0  flash.o(i.Jump2App)
    i.LockFlash                              0x08001df8   Section        0  flash.o(i.LockFlash)
    i.MY_NVIC_Init                           0x08001e0c   Section        0  sys.o(i.MY_NVIC_Init)
    i.MY_NVIC_PriorityGroupConfig            0x08001e84   Section        0  sys.o(i.MY_NVIC_PriorityGroupConfig)
    i.MY_NVIC_SetVectorTable                 0x08001eac   Section        0  sys.o(i.MY_NVIC_SetVectorTable)
    i.McuInit                                0x08001ebc   Section        0  mcu.o(i.McuInit)
    i.MsTickDiff                             0x08001ed4   Section        0  mcu.o(i.MsTickDiff)
    i.NetIntProcess                          0x08001ef8   Section        0  socket.o(i.NetIntProcess)
    i.NetPro                                 0x08002228   Section        0  netpro.o(i.NetPro)
    i.NetSendData                            0x080023cc   Section        0  netpro.o(i.NetSendData)
    i.RNG_Get_RandomNum                      0x080023f0   Section        0  rng.o(i.RNG_Get_RandomNum)
    i.RNG_Init                               0x0800240c   Section        0  rng.o(i.RNG_Init)
    i.ReCreatSocket                          0x0800245c   Section        0  socket.o(i.ReCreatSocket)
    i.ReadDefaultConfig                      0x08002474   Section        0  config.o(i.ReadDefaultConfig)
    i.ReadGateWayIp                          0x080024cc   Section        0  config.o(i.ReadGateWayIp)
    i.ReadIapServerIpAddr                    0x08002528   Section        0  config.o(i.ReadIapServerIpAddr)
    i.ReadMacAddr                            0x08002590   Section        0  config.o(i.ReadMacAddr)
    i.ReadNetIpAddr                          0x080025f0   Section        0  config.o(i.ReadNetIpAddr)
    i.ReadReg1Byte                           0x08002658   Section        0  w5500.o(i.ReadReg1Byte)
    i.ReadSocket1Byte                        0x08002698   Section        0  w5500.o(i.ReadSocket1Byte)
    i.ReadSocket2Byte                        0x080026e0   Section        0  w5500.o(i.ReadSocket2Byte)
    i.ReadSocket4Byte                        0x08002730   Section        0  w5500.o(i.ReadSocket4Byte)
    i.ReadSocketData                         0x08002788   Section        0  socket.o(i.ReadSocketData)
    i.RunLedTask                             0x0800289c   Section        0  main.o(i.RunLedTask)
    i.SDRAM_Init                             0x080028b0   Section        0  sdram.o(i.SDRAM_Init)
    i.SDRAM_Send_Cmd                         0x08002b7c   Section        0  sdram.o(i.SDRAM_Send_Cmd)
    i.SendBean                               0x08002bc4   Section        0  iappro.o(i.SendBean)
    i.SendSocketData                         0x08002bfc   Section        0  socket.o(i.SendSocketData)
    i.Sendto                                 0x08002cf8   Section        0  socket.o(i.Sendto)
    i.SetAddrInfo                            0x08002e30   Section        0  socket.o(i.SetAddrInfo)
    i.SetTaskStatus                          0x08002ed4   Section        0  taskmanger.o(i.SetTaskStatus)
    i.StartIap                               0x08002efc   Section        0  iappro.o(i.StartIap)
    i.Stm32_Clock_Init                       0x08002f40   Section        0  sys.o(i.Stm32_Clock_Init)
    i.Sys_Clock_Set                          0x08002fa8   Section        0  sys.o(i.Sys_Clock_Set)
    i.Sys_Soft_Reset                         0x080030b4   Section        0  sys.o(i.Sys_Soft_Reset)
    i.SystemClockInit                        0x080030c4   Section        0  mcu.o(i.SystemClockInit)
    i.TIM2_IRQHandler                        0x08003104   Section        0  mcu.o(i.TIM2_IRQHandler)
    i.TIM3_IRQHandler                        0x08003130   Section        0  mcu.o(i.TIM3_IRQHandler)
    i.UnlockFlash                            0x08003174   Section        0  flash.o(i.UnlockFlash)
    i.UserIoInit                             0x0800318c   Section        0  main.o(i.UserIoInit)
    i.W5500GetIntIoState                     0x080031b8   Section        0  w5500spi.o(i.W5500GetIntIoState)
    i.W5500Init                              0x080031c8   Section        0  socket.o(i.W5500Init)
    i.W5500Reset                             0x0800328c   Section        0  w5500.o(i.W5500Reset)
    i.W5500SetCsValue                        0x080032ac   Section        0  w5500spi.o(i.W5500SetCsValue)
    i.W5500SetRstValue                       0x080032d0   Section        0  w5500spi.o(i.W5500SetRstValue)
    i.W5500Spi_Init                          0x080032f4   Section        0  w5500spi.o(i.W5500Spi_Init)
    i.W5500Spi_SendByte                      0x080033cc   Section        0  w5500spi.o(i.W5500Spi_SendByte)
    i.W5500_Init                             0x08003444   Section        0  w5500.o(i.W5500_Init)
    i.WireIsLink                             0x08003458   Section        0  socket.o(i.WireIsLink)
    i.WriteAppToFlash                        0x08003470   Section        0  flash.o(i.WriteAppToFlash)
    i.WriteBurstReg                          0x080034f4   Section        0  w5500.o(i.WriteBurstReg)
    i.WriteCurConfig                         0x08003544   Section        0  config.o(i.WriteCurConfig)
    i.WriteReg1Byte                          0x08003568   Section        0  w5500.o(i.WriteReg1Byte)
    i.WriteReg2Byte                          0x080035a4   Section        0  w5500.o(i.WriteReg2Byte)
    i.WriteSocket1Byte                       0x080035e8   Section        0  w5500.o(i.WriteSocket1Byte)
    i.WriteSocket2Byte                       0x08003630   Section        0  w5500.o(i.WriteSocket2Byte)
    i.WriteSocket4Byte                       0x08003680   Section        0  w5500.o(i.WriteSocket4Byte)
    i.__0sprintf                             0x080036d8   Section        0  printfa.o(i.__0sprintf)
    i.__hardfp_strtod                        0x08003700   Section        0  strtod.o(i.__hardfp_strtod)
    i.__scatterload_copy                     0x08003728   Section       14  handlers.o(i.__scatterload_copy)
    i.__scatterload_null                     0x08003736   Section        2  handlers.o(i.__scatterload_null)
    i.__scatterload_zeroinit                 0x08003738   Section       14  handlers.o(i.__scatterload_zeroinit)
    i.__setMSP                               0x08003746   Section        0  flash.o(i.__setMSP)
    __setMSP                                 0x08003747   Thumb Code     6  flash.o(i.__setMSP)
    i._fp_digits                             0x0800374c   Section        0  printfa.o(i._fp_digits)
    _fp_digits                               0x0800374d   Thumb Code   366  printfa.o(i._fp_digits)
    i._is_digit                              0x080038d0   Section        0  scanf_fp.o(i._is_digit)
    i._printf_core                           0x080038e0   Section        0  printfa.o(i._printf_core)
    _printf_core                             0x080038e1   Thumb Code  1744  printfa.o(i._printf_core)
    i._printf_post_padding                   0x08003fbc   Section        0  printfa.o(i._printf_post_padding)
    _printf_post_padding                     0x08003fbd   Thumb Code    36  printfa.o(i._printf_post_padding)
    i._printf_pre_padding                    0x08003fe0   Section        0  printfa.o(i._printf_pre_padding)
    _printf_pre_padding                      0x08003fe1   Thumb Code    46  printfa.o(i._printf_pre_padding)
    i._sputc                                 0x0800400e   Section        0  printfa.o(i._sputc)
    _sputc                                   0x0800400f   Thumb Code    10  printfa.o(i._sputc)
    i.buffer_skip_whitespace                 0x08004018   Section        0  cjson.o(i.buffer_skip_whitespace)
    buffer_skip_whitespace                   0x08004019   Thumb Code    58  cjson.o(i.buffer_skip_whitespace)
    i.cJSON_AddItemToArray                   0x08004052   Section        0  cjson.o(i.cJSON_AddItemToArray)
    i.cJSON_AddItemToObject                  0x08004074   Section        0  cjson.o(i.cJSON_AddItemToObject)
    i.cJSON_AddItemToObjectCS                0x080040a8   Section        0  cjson.o(i.cJSON_AddItemToObjectCS)
    i.cJSON_CreateNull                       0x080040e4   Section        0  cjson.o(i.cJSON_CreateNull)
    i.cJSON_CreateObject                     0x080040fc   Section        0  cjson.o(i.cJSON_CreateObject)
    i.cJSON_CreateString                     0x08004114   Section        0  cjson.o(i.cJSON_CreateString)
    i.cJSON_Delete                           0x08004148   Section        0  cjson.o(i.cJSON_Delete)
    i.cJSON_GetObjectItem                    0x080041a0   Section        0  cjson.o(i.cJSON_GetObjectItem)
    i.cJSON_New_Item                         0x080041b2   Section        0  cjson.o(i.cJSON_New_Item)
    cJSON_New_Item                           0x080041b3   Thumb Code    26  cjson.o(i.cJSON_New_Item)
    i.cJSON_Parse                            0x080041cc   Section        0  cjson.o(i.cJSON_Parse)
    i.cJSON_ParseWithOpts                    0x080041dc   Section        0  cjson.o(i.cJSON_ParseWithOpts)
    i.cJSON_PrintUnformatted                 0x080042b0   Section        0  cjson.o(i.cJSON_PrintUnformatted)
    i.cJSON_strdup                           0x080042c4   Section        0  cjson.o(i.cJSON_strdup)
    cJSON_strdup                             0x080042c5   Thumb Code    56  cjson.o(i.cJSON_strdup)
    i.case_insensitive_strcmp                0x080042fc   Section        0  cjson.o(i.case_insensitive_strcmp)
    case_insensitive_strcmp                  0x080042fd   Thumb Code    72  cjson.o(i.case_insensitive_strcmp)
    i.createDataBean                         0x08004344   Section        0  databean.o(i.createDataBean)
    i.delay_ms                               0x08004458   Section        0  mcu.o(i.delay_ms)
    i.delay_us                               0x08004474   Section        0  mcu.o(i.delay_us)
    i.ensure                                 0x0800448c   Section        0  cjson.o(i.ensure)
    ensure                                   0x0800448d   Thumb Code   186  cjson.o(i.ensure)
    i.get_decimal_point                      0x08004546   Section        0  cjson.o(i.get_decimal_point)
    get_decimal_point                        0x08004547   Thumb Code     4  cjson.o(i.get_decimal_point)
    i.get_object_item                        0x0800454a   Section        0  cjson.o(i.get_object_item)
    get_object_item                          0x0800454b   Thumb Code    68  cjson.o(i.get_object_item)
    i.internal_free                          0x0800458e   Section        0  cjson.o(i.internal_free)
    internal_free                            0x0800458f   Thumb Code    14  cjson.o(i.internal_free)
    i.internal_malloc                        0x0800459c   Section        0  cjson.o(i.internal_malloc)
    internal_malloc                          0x0800459d   Thumb Code    14  cjson.o(i.internal_malloc)
    i.internal_realloc                       0x080045aa   Section        0  cjson.o(i.internal_realloc)
    internal_realloc                         0x080045ab   Thumb Code    18  cjson.o(i.internal_realloc)
    i.main                                   0x080045bc   Section        0  main.o(i.main)
    i.my_mem_free                            0x08004668   Section        0  malloc.o(i.my_mem_free)
    i.my_mem_init                            0x080046e8   Section        0  malloc.o(i.my_mem_init)
    i.my_mem_malloc                          0x08004714   Section        0  malloc.o(i.my_mem_malloc)
    i.my_mem_perused                         0x080047d0   Section        0  malloc.o(i.my_mem_perused)
    i.myfree                                 0x080047e0   Section        0  malloc.o(i.myfree)
    i.mymalloc                               0x08004804   Section        0  malloc.o(i.mymalloc)
    i.mymemcpy                               0x0800482c   Section        0  malloc.o(i.mymemcpy)
    i.mymemset                               0x08004846   Section        0  malloc.o(i.mymemset)
    i.myrealloc                              0x0800485c   Section        0  malloc.o(i.myrealloc)
    i.newTcpClient                           0x080048a0   Section        0  socket.o(i.newTcpClient)
    i.newTcpServer                           0x080049fc   Section        0  socket.o(i.newTcpServer)
    i.newUdpSocket                           0x08004b04   Section        0  socket.o(i.newUdpSocket)
    i.parse_array                            0x08004bec   Section        0  cjson.o(i.parse_array)
    parse_array                              0x08004bed   Thumb Code   244  cjson.o(i.parse_array)
    i.parse_hex4                             0x08004ce0   Section        0  cjson.o(i.parse_hex4)
    parse_hex4                               0x08004ce1   Thumb Code    90  cjson.o(i.parse_hex4)
    i.parse_number                           0x08004d3c   Section        0  cjson.o(i.parse_number)
    parse_number                             0x08004d3d   Thumb Code   316  cjson.o(i.parse_number)
    i.parse_object                           0x08004e90   Section        0  cjson.o(i.parse_object)
    parse_object                             0x08004e91   Thumb Code   314  cjson.o(i.parse_object)
    i.parse_string                           0x08004fca   Section        0  cjson.o(i.parse_string)
    parse_string                             0x08004fcb   Thumb Code   396  cjson.o(i.parse_string)
    i.parse_value                            0x08005158   Section        0  cjson.o(i.parse_value)
    parse_value                              0x08005159   Thumb Code   290  cjson.o(i.parse_value)
    i.print                                  0x08005294   Section        0  cjson.o(i.print)
    print                                    0x08005295   Thumb Code   172  cjson.o(i.print)
    i.print_array                            0x08005340   Section        0  cjson.o(i.print_array)
    print_array                              0x08005341   Thumb Code   178  cjson.o(i.print_array)
    i.print_number                           0x080053f4   Section        0  cjson.o(i.print_number)
    print_number                             0x080053f5   Thumb Code   232  cjson.o(i.print_number)
    i.print_object                           0x08005500   Section        0  cjson.o(i.print_object)
    print_object                             0x08005501   Thumb Code   372  cjson.o(i.print_object)
    i.print_string                           0x08005674   Section        0  cjson.o(i.print_string)
    print_string                             0x08005675   Thumb Code    16  cjson.o(i.print_string)
    i.print_string_ptr                       0x08005684   Section        0  cjson.o(i.print_string_ptr)
    print_string_ptr                         0x08005685   Thumb Code   360  cjson.o(i.print_string_ptr)
    i.print_value                            0x080057f8   Section        0  cjson.o(i.print_value)
    print_value                              0x080057f9   Thumb Code   246  cjson.o(i.print_value)
    i.skip_utf8_bom                          0x08005908   Section        0  cjson.o(i.skip_utf8_bom)
    skip_utf8_bom                            0x08005909   Thumb Code    56  cjson.o(i.skip_utf8_bom)
    i.update_offset                          0x08005944   Section        0  cjson.o(i.update_offset)
    update_offset                            0x08005945   Thumb Code    36  cjson.o(i.update_offset)
    i.utf16_literal_to_utf8                  0x08005968   Section        0  cjson.o(i.utf16_literal_to_utf8)
    utf16_literal_to_utf8                    0x08005969   Thumb Code   300  cjson.o(i.utf16_literal_to_utf8)
    .constdata                               0x08005a94   Section       36  malloc.o(.constdata)
    .constdata                               0x08005ab8   Section       64  ctype_c.o(.constdata)
    .ARM.__AT_0x10000000                     0x10000000   Section    61440  malloc.o(.ARM.__AT_0x10000000)
    .ARM.__AT_0x1000F000                     0x1000f000   Section     3840  malloc.o(.ARM.__AT_0x1000F000)
    .data                                    0x20000000   Section       12  netpro.o(.data)
    .data                                    0x2000000c   Section        4  iappro.o(.data)
    .data                                    0x20000010   Section        9  mcu.o(.data)
    .data                                    0x2000001c   Section       12  flash.o(.data)
    .data                                    0x20000028   Section       36  malloc.o(.data)
    .data                                    0x2000004c   Section       20  cjson.o(.data)
    global_error                             0x2000004c   Data           8  cjson.o(.data)
    global_hooks                             0x20000054   Data          12  cjson.o(.data)
    .data                                    0x20000060   Section        4  databean.o(.data)
    .bss                                     0x20000064   Section       20  netpro.o(.bss)
    .bss                                     0x20000078   Section       50  config.o(.bss)
    .bss                                     0x200000ac   Section       28  iappro.o(.bss)
    .bss                                     0x200000c8   Section    13784  socket.o(.bss)
    .bss                                     0x200036a0   Section       16  w5500.o(.bss)
    .bss                                     0x200036b0   Section     1560  taskmanger.o(.bss)
    .bss                                     0x20003ce0   Section    43552  malloc.o(.bss)
    STACK                                    0x2000e700   Section    40960  startup_stm32f429xx.o(STACK)
    .ARM.__AT_0xC01F4000                     0xc01f4000   Section    29605888  malloc.o(.ARM.__AT_0xC01F4000)
    .ARM.__AT_0xC1E30000                     0xc1e30000   Section    1850368  malloc.o(.ARM.__AT_0xC1E30000)

    Global Symbols

    Symbol Name                              Value     Ov Type        Size  Object(Section)

    BuildAttributes$$THM_ISAv4$E$P$D$K$B$S$7EM$VFPi3$EXTD16$VFPS$VFMA$PE$A:L22UL41UL21$X:L11$S22US41US21$IEEE1$IW$USESV6$~STKCKD$USESV7$~SHL$OTIME$ROPI$IEEEJ$EBA8$MICROLIB$REQ8$PRES8$EABIv2 0x00000000   Number         0  anon$$obj.o ABSOLUTE
    __ARM_use_no_argv                        0x00000000   Number         0  main.o ABSOLUTE
    _printf_a                                0x00000000   Number         0  stubs.o ABSOLUTE
    _printf_c                                0x00000000   Number         0  stubs.o ABSOLUTE
    _printf_charcount                        0x00000000   Number         0  stubs.o ABSOLUTE
    _printf_d                                0x00000000   Number         0  stubs.o ABSOLUTE
    _printf_e                                0x00000000   Number         0  stubs.o ABSOLUTE
    _printf_f                                0x00000000   Number         0  stubs.o ABSOLUTE
    _printf_flags                            0x00000000   Number         0  stubs.o ABSOLUTE
    _printf_fp_dec                           0x00000000   Number         0  stubs.o ABSOLUTE
    _printf_fp_hex                           0x00000000   Number         0  stubs.o ABSOLUTE
    _printf_g                                0x00000000   Number         0  stubs.o ABSOLUTE
    _printf_i                                0x00000000   Number         0  stubs.o ABSOLUTE
    _printf_int_dec                          0x00000000   Number         0  stubs.o ABSOLUTE
    _printf_l                                0x00000000   Number         0  stubs.o ABSOLUTE
    _printf_lc                               0x00000000   Number         0  stubs.o ABSOLUTE
    _printf_ll                               0x00000000   Number         0  stubs.o ABSOLUTE
    _printf_lld                              0x00000000   Number         0  stubs.o ABSOLUTE
    _printf_lli                              0x00000000   Number         0  stubs.o ABSOLUTE
    _printf_llo                              0x00000000   Number         0  stubs.o ABSOLUTE
    _printf_llu                              0x00000000   Number         0  stubs.o ABSOLUTE
    _printf_llx                              0x00000000   Number         0  stubs.o ABSOLUTE
    _printf_longlong_dec                     0x00000000   Number         0  stubs.o ABSOLUTE
    _printf_longlong_hex                     0x00000000   Number         0  stubs.o ABSOLUTE
    _printf_longlong_oct                     0x00000000   Number         0  stubs.o ABSOLUTE
    _printf_ls                               0x00000000   Number         0  stubs.o ABSOLUTE
    _printf_mbtowc                           0x00000000   Number         0  stubs.o ABSOLUTE
    _printf_n                                0x00000000   Number         0  stubs.o ABSOLUTE
    _printf_o                                0x00000000   Number         0  stubs.o ABSOLUTE
    _printf_p                                0x00000000   Number         0  stubs.o ABSOLUTE
    _printf_percent                          0x00000000   Number         0  stubs.o ABSOLUTE
    _printf_pre_padding                      0x00000000   Number         0  stubs.o ABSOLUTE
    _printf_return_value                     0x00000000   Number         0  stubs.o ABSOLUTE
    _printf_s                                0x00000000   Number         0  stubs.o ABSOLUTE
    _printf_sizespec                         0x00000000   Number         0  stubs.o ABSOLUTE
    _printf_str                              0x00000000   Number         0  stubs.o ABSOLUTE
    _printf_truncate_signed                  0x00000000   Number         0  stubs.o ABSOLUTE
    _printf_truncate_unsigned                0x00000000   Number         0  stubs.o ABSOLUTE
    _printf_u                                0x00000000   Number         0  stubs.o ABSOLUTE
    _printf_wc                               0x00000000   Number         0  stubs.o ABSOLUTE
    _printf_wctomb                           0x00000000   Number         0  stubs.o ABSOLUTE
    _printf_widthprec                        0x00000000   Number         0  stubs.o ABSOLUTE
    _printf_x                                0x00000000   Number         0  stubs.o ABSOLUTE
    __cpp_initialize__aeabi_                  - Undefined Weak Reference
    __cxa_finalize                            - Undefined Weak Reference
    __decompress                              - Undefined Weak Reference
    _clock_init                               - Undefined Weak Reference
    _microlib_exit                            - Undefined Weak Reference
    _scanf_int                                - Undefined Weak Reference
    _scanf_longlong                           - Undefined Weak Reference
    _scanf_string                             - Undefined Weak Reference
    __Vectors_Size                           0x000001ac   Number         0  startup_stm32f429xx.o ABSOLUTE
    __Vectors                                0x08000000   Data           4  startup_stm32f429xx.o(RESET)
    __Vectors_End                            0x080001ac   Data           0  startup_stm32f429xx.o(RESET)
    __main                                   0x080001ad   Thumb Code     0  entry.o(.ARM.Collect$$$$00000000)
    _main_stk                                0x080001ad   Thumb Code     0  entry2.o(.ARM.Collect$$$$00000001)
    _main_scatterload                        0x080001b1   Thumb Code     0  entry5.o(.ARM.Collect$$$$00000004)
    __main_after_scatterload                 0x080001b5   Thumb Code     0  entry5.o(.ARM.Collect$$$$00000004)
    _main_clock                              0x080001b5   Thumb Code     0  entry7b.o(.ARM.Collect$$$$00000008)
    _main_cpp_init                           0x080001b5   Thumb Code     0  entry8b.o(.ARM.Collect$$$$0000000A)
    _main_init                               0x080001b5   Thumb Code     0  entry9a.o(.ARM.Collect$$$$0000000B)
    __rt_final_cpp                           0x080001bd   Thumb Code     0  entry10a.o(.ARM.Collect$$$$0000000D)
    __rt_final_exit                          0x080001bd   Thumb Code     0  entry11a.o(.ARM.Collect$$$$0000000F)
    Reset_Handler                            0x080001c1   Thumb Code    14  startup_stm32f429xx.o(.text)
    NMI_Handler                              0x080001cf   Thumb Code     2  startup_stm32f429xx.o(.text)
    HardFault_Handler                        0x080001d1   Thumb Code     2  startup_stm32f429xx.o(.text)
    MemManage_Handler                        0x080001d3   Thumb Code     2  startup_stm32f429xx.o(.text)
    BusFault_Handler                         0x080001d5   Thumb Code     2  startup_stm32f429xx.o(.text)
    UsageFault_Handler                       0x080001d7   Thumb Code     2  startup_stm32f429xx.o(.text)
    SVC_Handler                              0x080001d9   Thumb Code     2  startup_stm32f429xx.o(.text)
    DebugMon_Handler                         0x080001db   Thumb Code     2  startup_stm32f429xx.o(.text)
    PendSV_Handler                           0x080001dd   Thumb Code     2  startup_stm32f429xx.o(.text)
    SysTick_Handler                          0x080001df   Thumb Code     2  startup_stm32f429xx.o(.text)
    ADC_IRQHandler                           0x080001e1   Thumb Code     0  startup_stm32f429xx.o(.text)
    CAN1_RX0_IRQHandler                      0x080001e1   Thumb Code     0  startup_stm32f429xx.o(.text)
    CAN1_RX1_IRQHandler                      0x080001e1   Thumb Code     0  startup_stm32f429xx.o(.text)
    CAN1_SCE_IRQHandler                      0x080001e1   Thumb Code     0  startup_stm32f429xx.o(.text)
    CAN1_TX_IRQHandler                       0x080001e1   Thumb Code     0  startup_stm32f429xx.o(.text)
    CAN2_RX0_IRQHandler                      0x080001e1   Thumb Code     0  startup_stm32f429xx.o(.text)
    CAN2_RX1_IRQHandler                      0x080001e1   Thumb Code     0  startup_stm32f429xx.o(.text)
    CAN2_SCE_IRQHandler                      0x080001e1   Thumb Code     0  startup_stm32f429xx.o(.text)
    CAN2_TX_IRQHandler                       0x080001e1   Thumb Code     0  startup_stm32f429xx.o(.text)
    DCMI_IRQHandler                          0x080001e1   Thumb Code     0  startup_stm32f429xx.o(.text)
    DMA1_Stream0_IRQHandler                  0x080001e1   Thumb Code     0  startup_stm32f429xx.o(.text)
    DMA1_Stream1_IRQHandler                  0x080001e1   Thumb Code     0  startup_stm32f429xx.o(.text)
    DMA1_Stream2_IRQHandler                  0x080001e1   Thumb Code     0  startup_stm32f429xx.o(.text)
    DMA1_Stream3_IRQHandler                  0x080001e1   Thumb Code     0  startup_stm32f429xx.o(.text)
    DMA1_Stream4_IRQHandler                  0x080001e1   Thumb Code     0  startup_stm32f429xx.o(.text)
    DMA1_Stream5_IRQHandler                  0x080001e1   Thumb Code     0  startup_stm32f429xx.o(.text)
    DMA1_Stream6_IRQHandler                  0x080001e1   Thumb Code     0  startup_stm32f429xx.o(.text)
    DMA1_Stream7_IRQHandler                  0x080001e1   Thumb Code     0  startup_stm32f429xx.o(.text)
    DMA2D_IRQHandler                         0x080001e1   Thumb Code     0  startup_stm32f429xx.o(.text)
    DMA2_Stream0_IRQHandler                  0x080001e1   Thumb Code     0  startup_stm32f429xx.o(.text)
    DMA2_Stream1_IRQHandler                  0x080001e1   Thumb Code     0  startup_stm32f429xx.o(.text)
    DMA2_Stream2_IRQHandler                  0x080001e1   Thumb Code     0  startup_stm32f429xx.o(.text)
    DMA2_Stream3_IRQHandler                  0x080001e1   Thumb Code     0  startup_stm32f429xx.o(.text)
    DMA2_Stream4_IRQHandler                  0x080001e1   Thumb Code     0  startup_stm32f429xx.o(.text)
    DMA2_Stream5_IRQHandler                  0x080001e1   Thumb Code     0  startup_stm32f429xx.o(.text)
    DMA2_Stream6_IRQHandler                  0x080001e1   Thumb Code     0  startup_stm32f429xx.o(.text)
    DMA2_Stream7_IRQHandler                  0x080001e1   Thumb Code     0  startup_stm32f429xx.o(.text)
    ETH_IRQHandler                           0x080001e1   Thumb Code     0  startup_stm32f429xx.o(.text)
    ETH_WKUP_IRQHandler                      0x080001e1   Thumb Code     0  startup_stm32f429xx.o(.text)
    EXTI0_IRQHandler                         0x080001e1   Thumb Code     0  startup_stm32f429xx.o(.text)
    EXTI15_10_IRQHandler                     0x080001e1   Thumb Code     0  startup_stm32f429xx.o(.text)
    EXTI1_IRQHandler                         0x080001e1   Thumb Code     0  startup_stm32f429xx.o(.text)
    EXTI2_IRQHandler                         0x080001e1   Thumb Code     0  startup_stm32f429xx.o(.text)
    EXTI3_IRQHandler                         0x080001e1   Thumb Code     0  startup_stm32f429xx.o(.text)
    EXTI4_IRQHandler                         0x080001e1   Thumb Code     0  startup_stm32f429xx.o(.text)
    EXTI9_5_IRQHandler                       0x080001e1   Thumb Code     0  startup_stm32f429xx.o(.text)
    FLASH_IRQHandler                         0x080001e1   Thumb Code     0  startup_stm32f429xx.o(.text)
    FMC_IRQHandler                           0x080001e1   Thumb Code     0  startup_stm32f429xx.o(.text)
    FPU_IRQHandler                           0x080001e1   Thumb Code     0  startup_stm32f429xx.o(.text)
    HASH_RNG_IRQHandler                      0x080001e1   Thumb Code     0  startup_stm32f429xx.o(.text)
    I2C1_ER_IRQHandler                       0x080001e1   Thumb Code     0  startup_stm32f429xx.o(.text)
    I2C1_EV_IRQHandler                       0x080001e1   Thumb Code     0  startup_stm32f429xx.o(.text)
    I2C2_ER_IRQHandler                       0x080001e1   Thumb Code     0  startup_stm32f429xx.o(.text)
    I2C2_EV_IRQHandler                       0x080001e1   Thumb Code     0  startup_stm32f429xx.o(.text)
    I2C3_ER_IRQHandler                       0x080001e1   Thumb Code     0  startup_stm32f429xx.o(.text)
    I2C3_EV_IRQHandler                       0x080001e1   Thumb Code     0  startup_stm32f429xx.o(.text)
    LTDC_ER_IRQHandler                       0x080001e1   Thumb Code     0  startup_stm32f429xx.o(.text)
    LTDC_IRQHandler                          0x080001e1   Thumb Code     0  startup_stm32f429xx.o(.text)
    OTG_FS_IRQHandler                        0x080001e1   Thumb Code     0  startup_stm32f429xx.o(.text)
    OTG_FS_WKUP_IRQHandler                   0x080001e1   Thumb Code     0  startup_stm32f429xx.o(.text)
    OTG_HS_EP1_IN_IRQHandler                 0x080001e1   Thumb Code     0  startup_stm32f429xx.o(.text)
    OTG_HS_EP1_OUT_IRQHandler                0x080001e1   Thumb Code     0  startup_stm32f429xx.o(.text)
    OTG_HS_IRQHandler                        0x080001e1   Thumb Code     0  startup_stm32f429xx.o(.text)
    OTG_HS_WKUP_IRQHandler                   0x080001e1   Thumb Code     0  startup_stm32f429xx.o(.text)
    PVD_IRQHandler                           0x080001e1   Thumb Code     0  startup_stm32f429xx.o(.text)
    RCC_IRQHandler                           0x080001e1   Thumb Code     0  startup_stm32f429xx.o(.text)
    RTC_Alarm_IRQHandler                     0x080001e1   Thumb Code     0  startup_stm32f429xx.o(.text)
    RTC_WKUP_IRQHandler                      0x080001e1   Thumb Code     0  startup_stm32f429xx.o(.text)
    SAI1_IRQHandler                          0x080001e1   Thumb Code     0  startup_stm32f429xx.o(.text)
    SDIO_IRQHandler                          0x080001e1   Thumb Code     0  startup_stm32f429xx.o(.text)
    SPI1_IRQHandler                          0x080001e1   Thumb Code     0  startup_stm32f429xx.o(.text)
    SPI2_IRQHandler                          0x080001e1   Thumb Code     0  startup_stm32f429xx.o(.text)
    SPI3_IRQHandler                          0x080001e1   Thumb Code     0  startup_stm32f429xx.o(.text)
    SPI4_IRQHandler                          0x080001e1   Thumb Code     0  startup_stm32f429xx.o(.text)
    SPI5_IRQHandler                          0x080001e1   Thumb Code     0  startup_stm32f429xx.o(.text)
    SPI6_IRQHandler                          0x080001e1   Thumb Code     0  startup_stm32f429xx.o(.text)
    TAMP_STAMP_IRQHandler                    0x080001e1   Thumb Code     0  startup_stm32f429xx.o(.text)
    TIM1_BRK_TIM9_IRQHandler                 0x080001e1   Thumb Code     0  startup_stm32f429xx.o(.text)
    TIM1_CC_IRQHandler                       0x080001e1   Thumb Code     0  startup_stm32f429xx.o(.text)
    TIM1_TRG_COM_TIM11_IRQHandler            0x080001e1   Thumb Code     0  startup_stm32f429xx.o(.text)
    TIM1_UP_TIM10_IRQHandler                 0x080001e1   Thumb Code     0  startup_stm32f429xx.o(.text)
    TIM4_IRQHandler                          0x080001e1   Thumb Code     0  startup_stm32f429xx.o(.text)
    TIM5_IRQHandler                          0x080001e1   Thumb Code     0  startup_stm32f429xx.o(.text)
    TIM6_DAC_IRQHandler                      0x080001e1   Thumb Code     0  startup_stm32f429xx.o(.text)
    TIM7_IRQHandler                          0x080001e1   Thumb Code     0  startup_stm32f429xx.o(.text)
    TIM8_BRK_TIM12_IRQHandler                0x080001e1   Thumb Code     0  startup_stm32f429xx.o(.text)
    TIM8_CC_IRQHandler                       0x080001e1   Thumb Code     0  startup_stm32f429xx.o(.text)
    TIM8_TRG_COM_TIM14_IRQHandler            0x080001e1   Thumb Code     0  startup_stm32f429xx.o(.text)
    TIM8_UP_TIM13_IRQHandler                 0x080001e1   Thumb Code     0  startup_stm32f429xx.o(.text)
    UART4_IRQHandler                         0x080001e1   Thumb Code     0  startup_stm32f429xx.o(.text)
    UART5_IRQHandler                         0x080001e1   Thumb Code     0  startup_stm32f429xx.o(.text)
    UART7_IRQHandler                         0x080001e1   Thumb Code     0  startup_stm32f429xx.o(.text)
    UART8_IRQHandler                         0x080001e1   Thumb Code     0  startup_stm32f429xx.o(.text)
    USART1_IRQHandler                        0x080001e1   Thumb Code     0  startup_stm32f429xx.o(.text)
    USART2_IRQHandler                        0x080001e1   Thumb Code     0  startup_stm32f429xx.o(.text)
    USART3_IRQHandler                        0x080001e1   Thumb Code     0  startup_stm32f429xx.o(.text)
    USART6_IRQHandler                        0x080001e1   Thumb Code     0  startup_stm32f429xx.o(.text)
    WWDG_IRQHandler                          0x080001e1   Thumb Code     0  startup_stm32f429xx.o(.text)
    tolower                                  0x080001ed   Thumb Code    12  tolower.o(.text)
    __aeabi_memcpy                           0x080001f9   Thumb Code    36  memcpya.o(.text)
    __aeabi_memcpy4                          0x080001f9   Thumb Code     0  memcpya.o(.text)
    __aeabi_memcpy8                          0x080001f9   Thumb Code     0  memcpya.o(.text)
    __aeabi_memset                           0x0800021d   Thumb Code    14  memseta.o(.text)
    __aeabi_memset4                          0x0800021d   Thumb Code     0  memseta.o(.text)
    __aeabi_memset8                          0x0800021d   Thumb Code     0  memseta.o(.text)
    __aeabi_memclr                           0x0800022b   Thumb Code     4  memseta.o(.text)
    __aeabi_memclr4                          0x0800022b   Thumb Code     0  memseta.o(.text)
    __aeabi_memclr8                          0x0800022b   Thumb Code     0  memseta.o(.text)
    _memset$wrapper                          0x0800022f   Thumb Code    18  memseta.o(.text)
    strlen                                   0x08000241   Thumb Code    14  strlen.o(.text)
    strcmp                                   0x0800024f   Thumb Code    28  strcmp.o(.text)
    strcpy                                   0x0800026b   Thumb Code    18  strcpy.o(.text)
    strncmp                                  0x0800027d   Thumb Code    30  strncmp.o(.text)
    __0sscanf                                0x0800029d   Thumb Code    48  __0sscanf.o(.text)
    _scanf_real                              0x080003fd   Thumb Code     0  scanf_fp.o(.text)
    _scanf_really_real                       0x080003fd   Thumb Code   556  scanf_fp.o(.text)
    __aeabi_dmul                             0x08000635   Thumb Code   228  dmul.o(.text)
    __aeabi_ul2d                             0x08000719   Thumb Code    24  dfltul.o(.text)
    __aeabi_d2iz                             0x08000731   Thumb Code    62  dfixi.o(.text)
    __aeabi_d2uiz                            0x0800076f   Thumb Code    50  dfixui.o(.text)
    __aeabi_cdcmpeq                          0x080007a1   Thumb Code     0  cdcmple.o(.text)
    __aeabi_cdcmple                          0x080007a1   Thumb Code    48  cdcmple.o(.text)
    __aeabi_cdrcmple                         0x080007d1   Thumb Code    48  cdrcmple.o(.text)
    __aeabi_uidiv                            0x08000801   Thumb Code     0  uidiv.o(.text)
    __aeabi_uidivmod                         0x08000801   Thumb Code    44  uidiv.o(.text)
    __aeabi_uldivmod                         0x0800082d   Thumb Code    98  uldiv.o(.text)
    __aeabi_llsr                             0x0800088f   Thumb Code    32  llushr.o(.text)
    _ll_ushift_r                             0x0800088f   Thumb Code     0  llushr.o(.text)
    __vfscanf_char                           0x080008bd   Thumb Code    20  scanf_char.o(.text)
    _sgetc                                   0x080008d9   Thumb Code    30  _sgetc.o(.text)
    _sbackspace                              0x080008f7   Thumb Code    34  _sgetc.o(.text)
    __strtod_int                             0x0800094f   Thumb Code    90  strtod.o(.text)
    __I$use$fp                               0x080009b5   Thumb Code     0  iusefp.o(.text)
    _double_round                            0x080009b5   Thumb Code    30  depilogue.o(.text)
    _double_epilogue                         0x080009d3   Thumb Code   156  depilogue.o(.text)
    __aeabi_dadd                             0x08000a6f   Thumb Code   322  dadd.o(.text)
    __aeabi_dsub                             0x08000bb1   Thumb Code     6  dadd.o(.text)
    __aeabi_drsub                            0x08000bb7   Thumb Code     6  dadd.o(.text)
    __aeabi_ddiv                             0x08000bbd   Thumb Code   222  ddiv.o(.text)
    __aeabi_d2ulz                            0x08000c9b   Thumb Code    48  dfixul.o(.text)
    __aeabi_d2f                              0x08000ccb   Thumb Code    56  d2f.o(.text)
    __scatterload                            0x08000d05   Thumb Code    28  init.o(.text)
    __scatterload_rt2                        0x08000d05   Thumb Code     0  init.o(.text)
    __aeabi_llsl                             0x08000d29   Thumb Code    30  llshl.o(.text)
    _ll_shift_l                              0x08000d29   Thumb Code     0  llshl.o(.text)
    __aeabi_lasr                             0x08000d47   Thumb Code    36  llsshr.o(.text)
    _ll_sshift_r                             0x08000d47   Thumb Code     0  llsshr.o(.text)
    isspace                                  0x08000d6b   Thumb Code    10  isspace_c.o(.text)
    __vfscanf                                0x08000d75   Thumb Code   808  _scanf.o(.text)
    _float_round                             0x080010a1   Thumb Code    18  fepilogue.o(.text)
    _float_epilogue                          0x080010b3   Thumb Code    92  fepilogue.o(.text)
    __ctype_lookup                           0x08001111   Thumb Code    34  ctype_c.o(.text)
    AppExist                                 0x08001139   Thumb Code    34  flash.o(i.AppExist)
    AppMd5Check                              0x08001161   Thumb Code    42  flash.o(i.AppMd5Check)
    BufCmp                                   0x08001191   Thumb Code    34  public.o(i.BufCmp)
    CalCrc16                                 0x080011b3   Thumb Code    68  crcmaker.o(i.CalCrc16)
    CheckCrc16                               0x080011f7   Thumb Code    54  crcmaker.o(i.CheckCrc16)
    CloseAllSocket                           0x0800122d   Thumb Code    50  socket.o(i.CloseAllSocket)
    ConfigCheck                              0x08001265   Thumb Code    38  config.o(i.ConfigCheck)
    CreatUserPort                            0x08001291   Thumb Code   116  netpro.o(i.CreatUserPort)
    CreateTask                               0x0800131d   Thumb Code   338  taskmanger.o(i.CreateTask)
    DeleteBean                               0x08001489   Thumb Code    12  databean.o(i.DeleteBean)
    DisableSocket                            0x08001499   Thumb Code    46  socket.o(i.DisableSocket)
    EraseApp                                 0x080014cd   Thumb Code   156  flash.o(i.EraseApp)
    ExecTask                                 0x0800156d   Thumb Code   128  taskmanger.o(i.ExecTask)
    FlashBusy                                0x080015f5   Thumb Code    18  flash.o(i.FlashBusy)
    FmIICAck                                 0x0800160d   Thumb Code   108  fminit.o(i.FmIICAck)
    FmIICNack                                0x0800167d   Thumb Code   102  fminit.o(i.FmIICNack)
    FmIICReadByte                            0x080016e9   Thumb Code   114  fminit.o(i.FmIICReadByte)
    FmIICSendByte                            0x08001761   Thumb Code   150  fminit.o(i.FmIICSendByte)
    FmIICStart                               0x080017fd   Thumb Code   114  fminit.o(i.FmIICStart)
    FmIICStop                                0x08001875   Thumb Code   120  fminit.o(i.FmIICStop)
    FmMemoryInit                             0x080018f1   Thumb Code   164  fminit.o(i.FmMemoryInit)
    FramReadBurstByte                        0x0800199d   Thumb Code   100  fminit.o(i.FramReadBurstByte)
    FramWriteBurstByte                       0x08001a01   Thumb Code    98  fminit.o(i.FramWriteBurstByte)
    GPIO_AF_Set                              0x08001a69   Thumb Code    64  sys.o(i.GPIO_AF_Set)
    GPIO_Set                                 0x08001aa9   Thumb Code   222  sys.o(i.GPIO_Set)
    GetIdleSocket                            0x08001b89   Thumb Code    48  socket.o(i.GetIdleSocket)
    GetIntSocket                             0x08001bbd   Thumb Code    42  socket.o(i.GetIntSocket)
    IapDataRecv                              0x08001bed   Thumb Code   256  iappro.o(i.IapDataRecv)
    IapPro                                   0x08001d69   Thumb Code    78  iappro.o(i.IapPro)
    Jump2App                                 0x08001dc9   Thumb Code    34  flash.o(i.Jump2App)
    LockFlash                                0x08001df9   Thumb Code    14  flash.o(i.LockFlash)
    MY_NVIC_Init                             0x08001e0d   Thumb Code   116  sys.o(i.MY_NVIC_Init)
    MY_NVIC_PriorityGroupConfig              0x08001e85   Thumb Code    32  sys.o(i.MY_NVIC_PriorityGroupConfig)
    MY_NVIC_SetVectorTable                   0x08001ead   Thumb Code    12  sys.o(i.MY_NVIC_SetVectorTable)
    McuInit                                  0x08001ebd   Thumb Code    22  mcu.o(i.McuInit)
    MsTickDiff                               0x08001ed5   Thumb Code    30  mcu.o(i.MsTickDiff)
    NetIntProcess                            0x08001ef9   Thumb Code   808  socket.o(i.NetIntProcess)
    NetPro                                   0x08002229   Thumb Code   312  netpro.o(i.NetPro)
    NetSendData                              0x080023cd   Thumb Code    28  netpro.o(i.NetSendData)
    RNG_Get_RandomNum                        0x080023f1   Thumb Code    22  rng.o(i.RNG_Get_RandomNum)
    RNG_Init                                 0x0800240d   Thumb Code    70  rng.o(i.RNG_Init)
    ReCreatSocket                            0x0800245d   Thumb Code    22  socket.o(i.ReCreatSocket)
    ReadDefaultConfig                        0x08002475   Thumb Code    74  config.o(i.ReadDefaultConfig)
    ReadGateWayIp                            0x080024cd   Thumb Code    88  config.o(i.ReadGateWayIp)
    ReadIapServerIpAddr                      0x08002529   Thumb Code    98  config.o(i.ReadIapServerIpAddr)
    ReadMacAddr                              0x08002591   Thumb Code    90  config.o(i.ReadMacAddr)
    ReadNetIpAddr                            0x080025f1   Thumb Code    98  config.o(i.ReadNetIpAddr)
    ReadReg1Byte                             0x08002659   Thumb Code    58  w5500.o(i.ReadReg1Byte)
    ReadSocket1Byte                          0x08002699   Thumb Code    66  w5500.o(i.ReadSocket1Byte)
    ReadSocket2Byte                          0x080026e1   Thumb Code    76  w5500.o(i.ReadSocket2Byte)
    ReadSocket4Byte                          0x08002731   Thumb Code    82  w5500.o(i.ReadSocket4Byte)
    ReadSocketData                           0x08002789   Thumb Code   272  socket.o(i.ReadSocketData)
    RunLedTask                               0x0800289d   Thumb Code    14  main.o(i.RunLedTask)
    SDRAM_Init                               0x080028b1   Thumb Code   688  sdram.o(i.SDRAM_Init)
    SDRAM_Send_Cmd                           0x08002b7d   Thumb Code    66  sdram.o(i.SDRAM_Send_Cmd)
    SendBean                                 0x08002bc5   Thumb Code    52  iappro.o(i.SendBean)
    SendSocketData                           0x08002bfd   Thumb Code   248  socket.o(i.SendSocketData)
    Sendto                                   0x08002cf9   Thumb Code   304  socket.o(i.Sendto)
    SetAddrInfo                              0x08002e31   Thumb Code   154  socket.o(i.SetAddrInfo)
    SetTaskStatus                            0x08002ed5   Thumb Code    34  taskmanger.o(i.SetTaskStatus)
    StartIap                                 0x08002efd   Thumb Code    50  iappro.o(i.StartIap)
    Stm32_Clock_Init                         0x08002f41   Thumb Code    92  sys.o(i.Stm32_Clock_Init)
    Sys_Clock_Set                            0x08002fa9   Thumb Code   254  sys.o(i.Sys_Clock_Set)
    Sys_Soft_Reset                           0x080030b5   Thumb Code     8  sys.o(i.Sys_Soft_Reset)
    SystemClockInit                          0x080030c5   Thumb Code    60  mcu.o(i.SystemClockInit)
    TIM2_IRQHandler                          0x08003105   Thumb Code    40  mcu.o(i.TIM2_IRQHandler)
    TIM3_IRQHandler                          0x08003131   Thumb Code    56  mcu.o(i.TIM3_IRQHandler)
    UnlockFlash                              0x08003175   Thumb Code    12  flash.o(i.UnlockFlash)
    UserIoInit                               0x0800318d   Thumb Code    36  main.o(i.UserIoInit)
    W5500GetIntIoState                       0x080031b9   Thumb Code    10  w5500spi.o(i.W5500GetIntIoState)
    W5500Init                                0x080031c9   Thumb Code   142  socket.o(i.W5500Init)
    W5500Reset                               0x0800328d   Thumb Code    28  w5500.o(i.W5500Reset)
    W5500SetCsValue                          0x080032ad   Thumb Code    30  w5500spi.o(i.W5500SetCsValue)
    W5500SetRstValue                         0x080032d1   Thumb Code    30  w5500spi.o(i.W5500SetRstValue)
    W5500Spi_Init                            0x080032f5   Thumb Code   204  w5500spi.o(i.W5500Spi_Init)
    W5500Spi_SendByte                        0x080033cd   Thumb Code   112  w5500spi.o(i.W5500Spi_SendByte)
    W5500_Init                               0x08003445   Thumb Code    14  w5500.o(i.W5500_Init)
    WireIsLink                               0x08003459   Thumb Code    22  socket.o(i.WireIsLink)
    WriteAppToFlash                          0x08003471   Thumb Code   122  flash.o(i.WriteAppToFlash)
    WriteBurstReg                            0x080034f5   Thumb Code    74  w5500.o(i.WriteBurstReg)
    WriteCurConfig                           0x08003545   Thumb Code    32  config.o(i.WriteCurConfig)
    WriteReg1Byte                            0x08003569   Thumb Code    56  w5500.o(i.WriteReg1Byte)
    WriteReg2Byte                            0x080035a5   Thumb Code    64  w5500.o(i.WriteReg2Byte)
    WriteSocket1Byte                         0x080035e9   Thumb Code    68  w5500.o(i.WriteSocket1Byte)
    WriteSocket2Byte                         0x08003631   Thumb Code    76  w5500.o(i.WriteSocket2Byte)
    WriteSocket4Byte                         0x08003681   Thumb Code    84  w5500.o(i.WriteSocket4Byte)
    __0sprintf                               0x080036d9   Thumb Code    34  printfa.o(i.__0sprintf)
    __1sprintf                               0x080036d9   Thumb Code     0  printfa.o(i.__0sprintf)
    __2sprintf                               0x080036d9   Thumb Code     0  printfa.o(i.__0sprintf)
    __c89sprintf                             0x080036d9   Thumb Code     0  printfa.o(i.__0sprintf)
    sprintf                                  0x080036d9   Thumb Code     0  printfa.o(i.__0sprintf)
    __hardfp_strtod                          0x08003701   Thumb Code    30  strtod.o(i.__hardfp_strtod)
    __scatterload_copy                       0x08003729   Thumb Code    14  handlers.o(i.__scatterload_copy)
    __scatterload_null                       0x08003737   Thumb Code     2  handlers.o(i.__scatterload_null)
    __scatterload_zeroinit                   0x08003739   Thumb Code    14  handlers.o(i.__scatterload_zeroinit)
    _is_digit                                0x080038d1   Thumb Code    14  scanf_fp.o(i._is_digit)
    cJSON_AddItemToArray                     0x08004053   Thumb Code    32  cjson.o(i.cJSON_AddItemToArray)
    cJSON_AddItemToObject                    0x08004075   Thumb Code    48  cjson.o(i.cJSON_AddItemToObject)
    cJSON_AddItemToObjectCS                  0x080040a9   Thumb Code    56  cjson.o(i.cJSON_AddItemToObjectCS)
    cJSON_CreateNull                         0x080040e5   Thumb Code    20  cjson.o(i.cJSON_CreateNull)
    cJSON_CreateObject                       0x080040fd   Thumb Code    20  cjson.o(i.cJSON_CreateObject)
    cJSON_CreateString                       0x08004115   Thumb Code    46  cjson.o(i.cJSON_CreateString)
    cJSON_Delete                             0x08004149   Thumb Code    84  cjson.o(i.cJSON_Delete)
    cJSON_GetObjectItem                      0x080041a1   Thumb Code    18  cjson.o(i.cJSON_GetObjectItem)
    cJSON_Parse                              0x080041cd   Thumb Code    16  cjson.o(i.cJSON_Parse)
    cJSON_ParseWithOpts                      0x080041dd   Thumb Code   204  cjson.o(i.cJSON_ParseWithOpts)
    cJSON_PrintUnformatted                   0x080042b1   Thumb Code    16  cjson.o(i.cJSON_PrintUnformatted)
    createDataBean                           0x08004345   Thumb Code   172  databean.o(i.createDataBean)
    delay_ms                                 0x08004459   Thumb Code    22  mcu.o(i.delay_ms)
    delay_us                                 0x08004475   Thumb Code    24  mcu.o(i.delay_us)
    main                                     0x080045bd   Thumb Code   130  main.o(i.main)
    my_mem_free                              0x08004669   Thumb Code   112  malloc.o(i.my_mem_free)
    my_mem_init                              0x080046e9   Thumb Code    34  malloc.o(i.my_mem_init)
    my_mem_malloc                            0x08004715   Thumb Code   172  malloc.o(i.my_mem_malloc)
    my_mem_perused                           0x080047d1   Thumb Code    10  malloc.o(i.my_mem_perused)
    myfree                                   0x080047e1   Thumb Code    32  malloc.o(i.myfree)
    mymalloc                                 0x08004805   Thumb Code    34  malloc.o(i.mymalloc)
    mymemcpy                                 0x0800482d   Thumb Code    26  malloc.o(i.mymemcpy)
    mymemset                                 0x08004847   Thumb Code    20  malloc.o(i.mymemset)
    myrealloc                                0x0800485d   Thumb Code    64  malloc.o(i.myrealloc)
    newTcpClient                             0x080048a1   Thumb Code   338  socket.o(i.newTcpClient)
    newTcpServer                             0x080049fd   Thumb Code   256  socket.o(i.newTcpServer)
    newUdpSocket                             0x08004b05   Thumb Code   222  socket.o(i.newUdpSocket)
    memtblsize                               0x08005a94   Data          12  malloc.o(.constdata)
    memblksize                               0x08005aa0   Data          12  malloc.o(.constdata)
    memsize                                  0x08005aac   Data          12  malloc.o(.constdata)
    __ctype_categories                       0x08005ab8   Data          64  ctype_c.o(.constdata)
    Region$$Table$$Base                      0x08005af8   Number         0  anon$$obj.o(Region$$Table)
    Region$$Table$$Limit                     0x08005b18   Number         0  anon$$obj.o(Region$$Table)
    mem3base                                 0x10000000   Data       61440  malloc.o(.ARM.__AT_0x10000000)
    mem3mapbase                              0x1000f000   Data        3840  malloc.o(.ARM.__AT_0x1000F000)
    Sockets                                  0x20000000   Data           8  netpro.o(.data)
    TASKID_NETPRO                            0x20000008   Data           4  netpro.o(.data)
    TASKID_IAPTASK                           0x2000000c   Data           4  iappro.o(.data)
    SYS_TICK                                 0x20000010   Data           4  mcu.o(.data)
    SEC_TICK                                 0x20000014   Data           4  mcu.o(.data)
    _100msCnt                                0x20000018   Data           1  mcu.o(.data)
    Jump_To_Application                      0x2000001c   Data           4  flash.o(.data)
    JumpAddress                              0x20000020   Data           4  flash.o(.data)
    WriteAddress                             0x20000024   Data           4  flash.o(.data)
    mallco_dev                               0x20000028   Data          36  malloc.o(.data)
    AckBean                                  0x20000060   Data           4  databean.o(.data)
    NetManger                                0x20000064   Data          20  netpro.o(.bss)
    ConfigBuf                                0x20000078   Data          50  config.o(.bss)
    Iap                                      0x200000ac   Data          28  iappro.o(.bss)
    Net                                      0x200000c8   Data       13784  socket.o(.bss)
    W5500                                    0x200036a0   Data          16  w5500.o(.bss)
    TaskManger                               0x200036b0   Data        1560  taskmanger.o(.bss)
    MemUsed                                  0x20003ce0   Data          12  malloc.o(.bss)
    mem1base                                 0x20003d00   Data       40960  malloc.o(.bss)
    mem1mapbase                              0x2000dd00   Data        2560  malloc.o(.bss)
    __initial_sp                             0x20018700   Data           0  startup_stm32f429xx.o(STACK)
    mem2base                                 0xc01f4000   Data       29605888  malloc.o(.ARM.__AT_0xC01F4000)
    mem2mapbase                              0xc1e30000   Data       1850368  malloc.o(.ARM.__AT_0xC1E30000)



==============================================================================

Memory Map of the image

  Image Entry point : 0x080001ad

  Load Region LR_IROM1 (Base: 0x08000000, Size: 0x00005b7c, Max: 0x00100000, ABSOLUTE)

    Execution Region ER_IROM1 (Exec base: 0x08000000, Load base: 0x08000000, Size: 0x00005b18, Max: 0x00100000, ABSOLUTE)

    Exec Addr    Load Addr    Size         Type   Attr      Idx    E Section Name        Object

    0x08000000   0x08000000   0x000001ac   Data   RO          156    RESET               startup_stm32f429xx.o
    0x080001ac   0x080001ac   0x00000000   Code   RO         1923  * .ARM.Collect$$$$00000000  mc_w.l(entry.o)
    0x080001ac   0x080001ac   0x00000004   Code   RO         2255    .ARM.Collect$$$$00000001  mc_w.l(entry2.o)
    0x080001b0   0x080001b0   0x00000004   Code   RO         2258    .ARM.Collect$$$$00000004  mc_w.l(entry5.o)
    0x080001b4   0x080001b4   0x00000000   Code   RO         2260    .ARM.Collect$$$$00000008  mc_w.l(entry7b.o)
    0x080001b4   0x080001b4   0x00000000   Code   RO         2262    .ARM.Collect$$$$0000000A  mc_w.l(entry8b.o)
    0x080001b4   0x080001b4   0x00000008   Code   RO         2263    .ARM.Collect$$$$0000000B  mc_w.l(entry9a.o)
    0x080001bc   0x080001bc   0x00000000   Code   RO         2265    .ARM.Collect$$$$0000000D  mc_w.l(entry10a.o)
    0x080001bc   0x080001bc   0x00000000   Code   RO         2267    .ARM.Collect$$$$0000000F  mc_w.l(entry11a.o)
    0x080001bc   0x080001bc   0x00000004   Code   RO         2256    .ARM.Collect$$$$00002712  mc_w.l(entry2.o)
    0x080001c0   0x080001c0   0x0000002c   Code   RO          157    .text               startup_stm32f429xx.o
    0x080001ec   0x080001ec   0x0000000c   Code   RO         1926    .text               mc_w.l(tolower.o)
    0x080001f8   0x080001f8   0x00000024   Code   RO         1928    .text               mc_w.l(memcpya.o)
    0x0800021c   0x0800021c   0x00000024   Code   RO         1930    .text               mc_w.l(memseta.o)
    0x08000240   0x08000240   0x0000000e   Code   RO         1932    .text               mc_w.l(strlen.o)
    0x0800024e   0x0800024e   0x0000001c   Code   RO         1934    .text               mc_w.l(strcmp.o)
    0x0800026a   0x0800026a   0x00000012   Code   RO         1936    .text               mc_w.l(strcpy.o)
    0x0800027c   0x0800027c   0x0000001e   Code   RO         1938    .text               mc_w.l(strncmp.o)
    0x0800029a   0x0800029a   0x00000002   PAD
    0x0800029c   0x0800029c   0x00000038   Code   RO         2231    .text               mc_w.l(__0sscanf.o)
    0x080002d4   0x080002d4   0x00000360   Code   RO         2233    .text               mc_w.l(scanf_fp.o)
    0x08000634   0x08000634   0x000000e4   Code   RO         2237    .text               mf_w.l(dmul.o)
    0x08000718   0x08000718   0x00000018   Code   RO         2243    .text               mf_w.l(dfltul.o)
    0x08000730   0x08000730   0x0000003e   Code   RO         2245    .text               mf_w.l(dfixi.o)
    0x0800076e   0x0800076e   0x00000032   Code   RO         2247    .text               mf_w.l(dfixui.o)
    0x080007a0   0x080007a0   0x00000030   Code   RO         2251    .text               mf_w.l(cdcmple.o)
    0x080007d0   0x080007d0   0x00000030   Code   RO         2253    .text               mf_w.l(cdrcmple.o)
    0x08000800   0x08000800   0x0000002c   Code   RO         2272    .text               mc_w.l(uidiv.o)
    0x0800082c   0x0800082c   0x00000062   Code   RO         2274    .text               mc_w.l(uldiv.o)
    0x0800088e   0x0800088e   0x00000020   Code   RO         2276    .text               mc_w.l(llushr.o)
    0x080008ae   0x080008ae   0x00000002   PAD
    0x080008b0   0x080008b0   0x00000028   Code   RO         2280    .text               mc_w.l(scanf_char.o)
    0x080008d8   0x080008d8   0x00000040   Code   RO         2282    .text               mc_w.l(_sgetc.o)
    0x08000918   0x08000918   0x0000009c   Code   RO         2284    .text               mc_w.l(strtod.o)
    0x080009b4   0x080009b4   0x00000000   Code   RO         2286    .text               mc_w.l(iusefp.o)
    0x080009b4   0x080009b4   0x000000ba   Code   RO         2287    .text               mf_w.l(depilogue.o)
    0x08000a6e   0x08000a6e   0x0000014e   Code   RO         2289    .text               mf_w.l(dadd.o)
    0x08000bbc   0x08000bbc   0x000000de   Code   RO         2291    .text               mf_w.l(ddiv.o)
    0x08000c9a   0x08000c9a   0x00000030   Code   RO         2293    .text               mf_w.l(dfixul.o)
    0x08000cca   0x08000cca   0x00000038   Code   RO         2295    .text               mf_w.l(d2f.o)
    0x08000d02   0x08000d02   0x00000002   PAD
    0x08000d04   0x08000d04   0x00000024   Code   RO         2297    .text               mc_w.l(init.o)
    0x08000d28   0x08000d28   0x0000001e   Code   RO         2300    .text               mc_w.l(llshl.o)
    0x08000d46   0x08000d46   0x00000024   Code   RO         2302    .text               mc_w.l(llsshr.o)
    0x08000d6a   0x08000d6a   0x0000000a   Code   RO         2304    .text               mc_w.l(isspace_c.o)
    0x08000d74   0x08000d74   0x0000032c   Code   RO         2306    .text               mc_w.l(_scanf.o)
    0x080010a0   0x080010a0   0x0000006e   Code   RO         2309    .text               mf_w.l(fepilogue.o)
    0x0800110e   0x0800110e   0x00000002   PAD
    0x08001110   0x08001110   0x00000028   Code   RO         2311    .text               mc_w.l(ctype_c.o)
    0x08001138   0x08001138   0x00000028   Code   RO          696    i.AppExist          flash.o
    0x08001160   0x08001160   0x00000030   Code   RO          697    i.AppMd5Check       flash.o
    0x08001190   0x08001190   0x00000022   Code   RO          274    i.BufCmp            public.o
    0x080011b2   0x080011b2   0x00000044   Code   RO         1758    i.CalCrc16          crcmaker.o
    0x080011f6   0x080011f6   0x00000036   Code   RO         1759    i.CheckCrc16        crcmaker.o
    0x0800122c   0x0800122c   0x00000038   Code   RO          806    i.CloseAllSocket    socket.o
    0x08001264   0x08001264   0x0000002c   Code   RO          368    i.ConfigCheck       config.o
    0x08001290   0x08001290   0x0000008c   Code   RO          304    i.CreatUserPort     netpro.o
    0x0800131c   0x0800131c   0x0000016c   Code   RO         1041    i.CreateTask        taskmanger.o
    0x08001488   0x08001488   0x00000010   Code   RO         1884    i.DeleteBean        databean.o
    0x08001498   0x08001498   0x00000034   Code   RO          807    i.DisableSocket     socket.o
    0x080014cc   0x080014cc   0x000000a0   Code   RO          698    i.EraseApp          flash.o
    0x0800156c   0x0800156c   0x00000088   Code   RO         1043    i.ExecTask          taskmanger.o
    0x080015f4   0x080015f4   0x00000018   Code   RO          699    i.FlashBusy         flash.o
    0x0800160c   0x0800160c   0x00000070   Code   RO         1809    i.FmIICAck          fminit.o
    0x0800167c   0x0800167c   0x0000006c   Code   RO         1810    i.FmIICNack         fminit.o
    0x080016e8   0x080016e8   0x00000078   Code   RO         1811    i.FmIICReadByte     fminit.o
    0x08001760   0x08001760   0x0000009c   Code   RO         1812    i.FmIICSendByte     fminit.o
    0x080017fc   0x080017fc   0x00000078   Code   RO         1813    i.FmIICStart        fminit.o
    0x08001874   0x08001874   0x0000007c   Code   RO         1814    i.FmIICStop         fminit.o
    0x080018f0   0x080018f0   0x000000ac   Code   RO         1815    i.FmMemoryInit      fminit.o
    0x0800199c   0x0800199c   0x00000064   Code   RO         1816    i.FramReadBurstByte  fminit.o
    0x08001a00   0x08001a00   0x00000068   Code   RO         1817    i.FramWriteBurstByte  fminit.o
    0x08001a68   0x08001a68   0x00000040   Code   RO            6    i.GPIO_AF_Set       sys.o
    0x08001aa8   0x08001aa8   0x000000de   Code   RO            7    i.GPIO_Set          sys.o
    0x08001b86   0x08001b86   0x00000002   PAD
    0x08001b88   0x08001b88   0x00000034   Code   RO          808    i.GetIdleSocket     socket.o
    0x08001bbc   0x08001bbc   0x00000030   Code   RO          809    i.GetIntSocket      socket.o
    0x08001bec   0x08001bec   0x0000017c   Code   RO          443    i.IapDataRecv       iappro.o
    0x08001d68   0x08001d68   0x00000060   Code   RO          444    i.IapPro            iappro.o
    0x08001dc8   0x08001dc8   0x00000030   Code   RO          700    i.Jump2App          flash.o
    0x08001df8   0x08001df8   0x00000014   Code   RO          702    i.LockFlash         flash.o
    0x08001e0c   0x08001e0c   0x00000078   Code   RO           12    i.MY_NVIC_Init      sys.o
    0x08001e84   0x08001e84   0x00000028   Code   RO           13    i.MY_NVIC_PriorityGroupConfig  sys.o
    0x08001eac   0x08001eac   0x00000010   Code   RO           14    i.MY_NVIC_SetVectorTable  sys.o
    0x08001ebc   0x08001ebc   0x00000016   Code   RO          576    i.McuInit           mcu.o
    0x08001ed2   0x08001ed2   0x00000002   PAD
    0x08001ed4   0x08001ed4   0x00000024   Code   RO          577    i.MsTickDiff        mcu.o
    0x08001ef8   0x08001ef8   0x00000330   Code   RO          811    i.NetIntProcess     socket.o
    0x08002228   0x08002228   0x000001a4   Code   RO          306    i.NetPro            netpro.o
    0x080023cc   0x080023cc   0x00000024   Code   RO          307    i.NetSendData       netpro.o
    0x080023f0   0x080023f0   0x0000001c   Code   RO          540    i.RNG_Get_RandomNum  rng.o
    0x0800240c   0x0800240c   0x00000050   Code   RO          542    i.RNG_Init          rng.o
    0x0800245c   0x0800245c   0x00000016   Code   RO          812    i.ReCreatSocket     socket.o
    0x08002472   0x08002472   0x00000002   PAD
    0x08002474   0x08002474   0x00000058   Code   RO          369    i.ReadDefaultConfig  config.o
    0x080024cc   0x080024cc   0x0000005c   Code   RO          370    i.ReadGateWayIp     config.o
    0x08002528   0x08002528   0x00000068   Code   RO          371    i.ReadIapServerIpAddr  config.o
    0x08002590   0x08002590   0x00000060   Code   RO          372    i.ReadMacAddr       config.o
    0x080025f0   0x080025f0   0x00000068   Code   RO          373    i.ReadNetIpAddr     config.o
    0x08002658   0x08002658   0x00000040   Code   RO          937    i.ReadReg1Byte      w5500.o
    0x08002698   0x08002698   0x00000048   Code   RO          939    i.ReadSocket1Byte   w5500.o
    0x080026e0   0x080026e0   0x00000050   Code   RO          940    i.ReadSocket2Byte   w5500.o
    0x08002730   0x08002730   0x00000058   Code   RO          941    i.ReadSocket4Byte   w5500.o
    0x08002788   0x08002788   0x00000114   Code   RO          813    i.ReadSocketData    socket.o
    0x0800289c   0x0800289c   0x00000014   Code   RO          164    i.RunLedTask        main.o
    0x080028b0   0x080028b0   0x000002cc   Code   RO          656    i.SDRAM_Init        sdram.o
    0x08002b7c   0x08002b7c   0x00000048   Code   RO          657    i.SDRAM_Send_Cmd    sdram.o
    0x08002bc4   0x08002bc4   0x00000038   Code   RO          445    i.SendBean          iappro.o
    0x08002bfc   0x08002bfc   0x000000fc   Code   RO          814    i.SendSocketData    socket.o
    0x08002cf8   0x08002cf8   0x00000138   Code   RO          815    i.Sendto            socket.o
    0x08002e30   0x08002e30   0x000000a4   Code   RO          816    i.SetAddrInfo       socket.o
    0x08002ed4   0x08002ed4   0x00000028   Code   RO         1046    i.SetTaskStatus     taskmanger.o
    0x08002efc   0x08002efc   0x00000044   Code   RO          446    i.StartIap          iappro.o
    0x08002f40   0x08002f40   0x00000068   Code   RO           16    i.Stm32_Clock_Init  sys.o
    0x08002fa8   0x08002fa8   0x0000010c   Code   RO           17    i.Sys_Clock_Set     sys.o
    0x080030b4   0x080030b4   0x00000010   Code   RO           18    i.Sys_Soft_Reset    sys.o
    0x080030c4   0x080030c4   0x00000040   Code   RO          579    i.SystemClockInit   mcu.o
    0x08003104   0x08003104   0x0000002c   Code   RO          580    i.TIM2_IRQHandler   mcu.o
    0x08003130   0x08003130   0x00000044   Code   RO          581    i.TIM3_IRQHandler   mcu.o
    0x08003174   0x08003174   0x00000018   Code   RO          704    i.UnlockFlash       flash.o
    0x0800318c   0x0800318c   0x0000002c   Code   RO          165    i.UserIoInit        main.o
    0x080031b8   0x080031b8   0x00000010   Code   RO          492    i.W5500GetIntIoState  w5500spi.o
    0x080031c8   0x080031c8   0x000000c4   Code   RO          818    i.W5500Init         socket.o
    0x0800328c   0x0800328c   0x00000020   Code   RO          942    i.W5500Reset        w5500.o
    0x080032ac   0x080032ac   0x00000024   Code   RO          493    i.W5500SetCsValue   w5500spi.o
    0x080032d0   0x080032d0   0x00000024   Code   RO          494    i.W5500SetRstValue  w5500spi.o
    0x080032f4   0x080032f4   0x000000d8   Code   RO          495    i.W5500Spi_Init     w5500spi.o
    0x080033cc   0x080033cc   0x00000078   Code   RO          496    i.W5500Spi_SendByte  w5500spi.o
    0x08003444   0x08003444   0x00000014   Code   RO          943    i.W5500_Init        w5500.o
    0x08003458   0x08003458   0x00000016   Code   RO          819    i.WireIsLink        socket.o
    0x0800346e   0x0800346e   0x00000002   PAD
    0x08003470   0x08003470   0x00000084   Code   RO          706    i.WriteAppToFlash   flash.o
    0x080034f4   0x080034f4   0x00000050   Code   RO          944    i.WriteBurstReg     w5500.o
    0x08003544   0x08003544   0x00000024   Code   RO          375    i.WriteCurConfig    config.o
    0x08003568   0x08003568   0x0000003c   Code   RO          945    i.WriteReg1Byte     w5500.o
    0x080035a4   0x080035a4   0x00000044   Code   RO          946    i.WriteReg2Byte     w5500.o
    0x080035e8   0x080035e8   0x00000048   Code   RO          947    i.WriteSocket1Byte  w5500.o
    0x08003630   0x08003630   0x00000050   Code   RO          948    i.WriteSocket2Byte  w5500.o
    0x08003680   0x08003680   0x00000058   Code   RO          949    i.WriteSocket4Byte  w5500.o
    0x080036d8   0x080036d8   0x00000028   Code   RO         2177    i.__0sprintf        mc_w.l(printfa.o)
    0x08003700   0x08003700   0x00000028   Code   RO         1917    i.__hardfp_strtod   m_wm.l(strtod.o)
    0x08003728   0x08003728   0x0000000e   Code   RO         2316    i.__scatterload_copy  mc_w.l(handlers.o)
    0x08003736   0x08003736   0x00000002   Code   RO         2317    i.__scatterload_null  mc_w.l(handlers.o)
    0x08003738   0x08003738   0x0000000e   Code   RO         2318    i.__scatterload_zeroinit  mc_w.l(handlers.o)
    0x08003746   0x08003746   0x00000006   Code   RO          710    i.__setMSP          flash.o
    0x0800374c   0x0800374c   0x00000184   Code   RO         2182    i._fp_digits        mc_w.l(printfa.o)
    0x080038d0   0x080038d0   0x0000000e   Code   RO         2235    i._is_digit         mc_w.l(scanf_fp.o)
    0x080038de   0x080038de   0x00000002   PAD
    0x080038e0   0x080038e0   0x000006dc   Code   RO         2183    i._printf_core      mc_w.l(printfa.o)
    0x08003fbc   0x08003fbc   0x00000024   Code   RO         2184    i._printf_post_padding  mc_w.l(printfa.o)
    0x08003fe0   0x08003fe0   0x0000002e   Code   RO         2185    i._printf_pre_padding  mc_w.l(printfa.o)
    0x0800400e   0x0800400e   0x0000000a   Code   RO         2187    i._sputc            mc_w.l(printfa.o)
    0x08004018   0x08004018   0x0000003a   Code   RO         1187    i.buffer_skip_whitespace  cjson.o
    0x08004052   0x08004052   0x00000020   Code   RO         1190    i.cJSON_AddItemToArray  cjson.o
    0x08004072   0x08004072   0x00000002   PAD
    0x08004074   0x08004074   0x00000034   Code   RO         1191    i.cJSON_AddItemToObject  cjson.o
    0x080040a8   0x080040a8   0x0000003c   Code   RO         1192    i.cJSON_AddItemToObjectCS  cjson.o
    0x080040e4   0x080040e4   0x00000018   Code   RO         1200    i.cJSON_CreateNull  cjson.o
    0x080040fc   0x080040fc   0x00000018   Code   RO         1202    i.cJSON_CreateObject  cjson.o
    0x08004114   0x08004114   0x00000034   Code   RO         1204    i.cJSON_CreateString  cjson.o
    0x08004148   0x08004148   0x00000058   Code   RO         1207    i.cJSON_Delete      cjson.o
    0x080041a0   0x080041a0   0x00000012   Code   RO         1219    i.cJSON_GetObjectItem  cjson.o
    0x080041b2   0x080041b2   0x0000001a   Code   RO         1235    i.cJSON_New_Item    cjson.o
    0x080041cc   0x080041cc   0x00000010   Code   RO         1236    i.cJSON_Parse       cjson.o
    0x080041dc   0x080041dc   0x000000d4   Code   RO         1237    i.cJSON_ParseWithOpts  cjson.o
    0x080042b0   0x080042b0   0x00000014   Code   RO         1241    i.cJSON_PrintUnformatted  cjson.o
    0x080042c4   0x080042c4   0x00000038   Code   RO         1250    i.cJSON_strdup      cjson.o
    0x080042fc   0x080042fc   0x00000048   Code   RO         1251    i.case_insensitive_strcmp  cjson.o
    0x08004344   0x08004344   0x00000114   Code   RO         1885    i.createDataBean    databean.o
    0x08004458   0x08004458   0x0000001c   Code   RO          583    i.delay_ms          mcu.o
    0x08004474   0x08004474   0x00000018   Code   RO          584    i.delay_us          mcu.o
    0x0800448c   0x0800448c   0x000000ba   Code   RO         1253    i.ensure            cjson.o
    0x08004546   0x08004546   0x00000004   Code   RO         1255    i.get_decimal_point  cjson.o
    0x0800454a   0x0800454a   0x00000044   Code   RO         1256    i.get_object_item   cjson.o
    0x0800458e   0x0800458e   0x0000000e   Code   RO         1257    i.internal_free     cjson.o
    0x0800459c   0x0800459c   0x0000000e   Code   RO         1258    i.internal_malloc   cjson.o
    0x080045aa   0x080045aa   0x00000012   Code   RO         1259    i.internal_realloc  cjson.o
    0x080045bc   0x080045bc   0x000000ac   Code   RO          166    i.main              main.o
    0x08004668   0x08004668   0x00000080   Code   RO         1103    i.my_mem_free       malloc.o
    0x080046e8   0x080046e8   0x0000002c   Code   RO         1104    i.my_mem_init       malloc.o
    0x08004714   0x08004714   0x000000bc   Code   RO         1105    i.my_mem_malloc     malloc.o
    0x080047d0   0x080047d0   0x00000010   Code   RO         1106    i.my_mem_perused    malloc.o
    0x080047e0   0x080047e0   0x00000024   Code   RO         1107    i.myfree            malloc.o
    0x08004804   0x08004804   0x00000028   Code   RO         1108    i.mymalloc          malloc.o
    0x0800482c   0x0800482c   0x0000001a   Code   RO         1109    i.mymemcpy          malloc.o
    0x08004846   0x08004846   0x00000014   Code   RO         1110    i.mymemset          malloc.o
    0x0800485a   0x0800485a   0x00000002   PAD
    0x0800485c   0x0800485c   0x00000044   Code   RO         1111    i.myrealloc         malloc.o
    0x080048a0   0x080048a0   0x0000015c   Code   RO          820    i.newTcpClient      socket.o
    0x080049fc   0x080049fc   0x00000108   Code   RO          821    i.newTcpServer      socket.o
    0x08004b04   0x08004b04   0x000000e8   Code   RO          822    i.newUdpSocket      socket.o
    0x08004bec   0x08004bec   0x000000f4   Code   RO         1260    i.parse_array       cjson.o
    0x08004ce0   0x08004ce0   0x0000005a   Code   RO         1261    i.parse_hex4        cjson.o
    0x08004d3a   0x08004d3a   0x00000002   PAD
    0x08004d3c   0x08004d3c   0x00000154   Code   RO         1262    i.parse_number      cjson.o
    0x08004e90   0x08004e90   0x0000013a   Code   RO         1263    i.parse_object      cjson.o
    0x08004fca   0x08004fca   0x0000018c   Code   RO         1264    i.parse_string      cjson.o
    0x08005156   0x08005156   0x00000002   PAD
    0x08005158   0x08005158   0x0000013c   Code   RO         1265    i.parse_value       cjson.o
    0x08005294   0x08005294   0x000000ac   Code   RO         1266    i.print             cjson.o
    0x08005340   0x08005340   0x000000b2   Code   RO         1267    i.print_array       cjson.o
    0x080053f2   0x080053f2   0x00000002   PAD
    0x080053f4   0x080053f4   0x0000010c   Code   RO         1268    i.print_number      cjson.o
    0x08005500   0x08005500   0x00000174   Code   RO         1269    i.print_object      cjson.o
    0x08005674   0x08005674   0x00000010   Code   RO         1270    i.print_string      cjson.o
    0x08005684   0x08005684   0x00000174   Code   RO         1271    i.print_string_ptr  cjson.o
    0x080057f8   0x080057f8   0x00000110   Code   RO         1272    i.print_value       cjson.o
    0x08005908   0x08005908   0x0000003c   Code   RO         1274    i.skip_utf8_bom     cjson.o
    0x08005944   0x08005944   0x00000024   Code   RO         1276    i.update_offset     cjson.o
    0x08005968   0x08005968   0x0000012c   Code   RO         1277    i.utf16_literal_to_utf8  cjson.o
    0x08005a94   0x08005a94   0x00000024   Data   RO         1117    .constdata          malloc.o
    0x08005ab8   0x08005ab8   0x00000040   Data   RO         2312    .constdata          mc_w.l(ctype_c.o)
    0x08005af8   0x08005af8   0x00000020   Data   RO         2314    Region$$Table       anon$$obj.o


    Execution Region RW_IRAM1 (Exec base: 0x20000000, Load base: 0x08005b18, Size: 0x00018700, Max: 0x00030000, ABSOLUTE)

    Exec Addr    Load Addr    Size         Type   Attr      Idx    E Section Name        Object

    0x20000000   0x08005b18   0x0000000c   Data   RW          311    .data               netpro.o
    0x2000000c   0x08005b24   0x00000004   Data   RW          448    .data               iappro.o
    0x20000010   0x08005b28   0x00000009   Data   RW          585    .data               mcu.o
    0x20000019   0x08005b31   0x00000003   PAD
    0x2000001c   0x08005b34   0x0000000c   Data   RW          711    .data               flash.o
    0x20000028   0x08005b40   0x00000024   Data   RW         1118    .data               malloc.o
    0x2000004c   0x08005b64   0x00000014   Data   RW         1279    .data               cjson.o
    0x20000060   0x08005b78   0x00000004   Data   RW         1886    .data               databean.o
    0x20000064        -       0x00000014   Zero   RW          310    .bss                netpro.o
    0x20000078        -       0x00000032   Zero   RW          376    .bss                config.o
    0x200000aa   0x08005b7c   0x00000002   PAD
    0x200000ac        -       0x0000001c   Zero   RW          447    .bss                iappro.o
    0x200000c8        -       0x000035d8   Zero   RW          823    .bss                socket.o
    0x200036a0        -       0x00000010   Zero   RW          950    .bss                w5500.o
    0x200036b0        -       0x00000618   Zero   RW         1047    .bss                taskmanger.o
    0x20003cc8   0x08005b7c   0x00000018   PAD
    0x20003ce0        -       0x0000aa20   Zero   RW         1116    .bss                malloc.o
    0x2000e700        -       0x0000a000   Zero   RW          154    STACK               startup_stm32f429xx.o



  Load Region LR$$.ARM.__AT_0x10000000 (Base: 0x10000000, Size: 0x00000000, Max: 0x0000f000, ABSOLUTE)

    Execution Region ER$$.ARM.__AT_0x10000000 (Exec base: 0x10000000, Load base: 0x10000000, Size: 0x0000f000, Max: 0x0000f000, ABSOLUTE, UNINIT)

    Exec Addr    Load Addr    Size         Type   Attr      Idx    E Section Name        Object

    0x10000000        -       0x0000f000   Zero   RW         1112    .ARM.__AT_0x10000000  malloc.o



  Load Region LR$$.ARM.__AT_0x1000F000 (Base: 0x1000f000, Size: 0x00000000, Max: 0x00000f00, ABSOLUTE)

    Execution Region ER$$.ARM.__AT_0x1000F000 (Exec base: 0x1000f000, Load base: 0x1000f000, Size: 0x00000f00, Max: 0x00000f00, ABSOLUTE, UNINIT)

    Exec Addr    Load Addr    Size         Type   Attr      Idx    E Section Name        Object

    0x1000f000        -       0x00000f00   Zero   RW         1113    .ARM.__AT_0x1000F000  malloc.o



  Load Region LR$$.ARM.__AT_0xC01F4000 (Base: 0xc01f4000, Size: 0x00000000, Max: 0x01c3c000, ABSOLUTE)

    Execution Region ER$$.ARM.__AT_0xC01F4000 (Exec base: 0xc01f4000, Load base: 0xc01f4000, Size: 0x01c3c000, Max: 0x01c3c000, ABSOLUTE, UNINIT)

    Exec Addr    Load Addr    Size         Type   Attr      Idx    E Section Name        Object

    0xc01f4000        -       0x01c3c000   Zero   RW         1114    .ARM.__AT_0xC01F4000  malloc.o



  Load Region LR$$.ARM.__AT_0xC1E30000 (Base: 0xc1e30000, Size: 0x00000000, Max: 0x001c3c00, ABSOLUTE)

    Execution Region ER$$.ARM.__AT_0xC1E30000 (Exec base: 0xc1e30000, Load base: 0xc1e30000, Size: 0x001c3c00, Max: 0x001c3c00, ABSOLUTE, UNINIT)

    Exec Addr    Load Addr    Size         Type   Attr      Idx    E Section Name        Object

    0xc1e30000        -       0x001c3c00   Zero   RW         1115    .ARM.__AT_0xC1E30000  malloc.o


==============================================================================

Image component sizes


      Code (inc. data)   RO Data    RW Data    ZI Data      Debug   Object Name

      4860        176          0         20          0      31532   cjson.o
       564         46          0          0         50       4771   config.o
       122          0          0          0          0       1732   crcmaker.o
       292        108          0          4          0       1552   databean.o
       502         64          0         12          0       5410   flash.o
      1116         46          0          0          0       5276   fminit.o
       600        164          0          4         28       3266   iappro.o
       236         56          0          0          0       8667   main.o
       566         62         36         36   31565088       7649   malloc.o
       286         32          0          9          0       3685   mcu.o
       596        140          0         12         20       2877   netpro.o
        34          0          0          0          0        929   public.o
       108         16          0          0          0       1055   rng.o
       788         34          0          0          0       1630   sdram.o
      3112        144          0          0      13784      15693   socket.o
        44         10        428          0      40960        804   startup_stm32f429xx.o
       850         50          0          0          0     281187   sys.o
       540         40          0          0       1560       3554   taskmanger.o
       804         58          0          0         16       7564   w5500.o
       424         38          0          0          0       2686   w5500spi.o

    ----------------------------------------------------------------------
     16462       1284        496        100   31621532     391519   Object Totals
         0          0         32          0          0          0   (incl. Generated)
        18          0          0          3         26          0   (incl. Padding)

    ----------------------------------------------------------------------

      Code (inc. data)   RO Data    RW Data    ZI Data      Debug   Library Member Name

        40         10          0          0          0        128   strtod.o
        56          8          0          0          0         84   __0sscanf.o
       812          4          0          0          0        112   _scanf.o
        64          0          0          0          0         84   _sgetc.o
        40          6         64          0          0         68   ctype_c.o
         0          0          0          0          0          0   entry.o
         0          0          0          0          0          0   entry10a.o
         0          0          0          0          0          0   entry11a.o
         8          4          0          0          0          0   entry2.o
         4          0          0          0          0          0   entry5.o
         0          0          0          0          0          0   entry7b.o
         0          0          0          0          0          0   entry8b.o
         8          4          0          0          0          0   entry9a.o
        30          0          0          0          0          0   handlers.o
        36          8          0          0          0         68   init.o
        10          0          0          0          0         68   isspace_c.o
         0          0          0          0          0          0   iusefp.o
        30          0          0          0          0         68   llshl.o
        36          0          0          0          0         68   llsshr.o
        32          0          0          0          0         68   llushr.o
        36          0          0          0          0         68   memcpya.o
        36          0          0          0          0        108   memseta.o
      2276         86          0          0          0        520   printfa.o
        40          8          0          0          0         84   scanf_char.o
       878         12          0          0          0        216   scanf_fp.o
        28          0          0          0          0         76   strcmp.o
        18          0          0          0          0         68   strcpy.o
        14          0          0          0          0         68   strlen.o
        30          0          0          0          0         80   strncmp.o
       156         12          0          0          0        120   strtod.o
        12          0          0          0          0         68   tolower.o
        44          0          0          0          0         80   uidiv.o
        98          0          0          0          0         92   uldiv.o
        48          0          0          0          0         68   cdcmple.o
        48          0          0          0          0         68   cdrcmple.o
        56          0          0          0          0         88   d2f.o
       334          0          0          0          0        148   dadd.o
       222          0          0          0          0        100   ddiv.o
       186          0          0          0          0        176   depilogue.o
        62          0          0          0          0         80   dfixi.o
        50          0          0          0          0         76   dfixui.o
        48          0          0          0          0         68   dfixul.o
        24          0          0          0          0         76   dfltul.o
       228          0          0          0          0         96   dmul.o
       110          0          0          0          0        168   fepilogue.o

    ----------------------------------------------------------------------
      6298        162         64          0          0       3676   Library Totals
        10          0          0          0          0          0   (incl. Padding)

    ----------------------------------------------------------------------

      Code (inc. data)   RO Data    RW Data    ZI Data      Debug   Library Name

        40         10          0          0          0        128   m_wm.l
      4832        152         64          0          0       2336   mc_w.l
      1416          0          0          0          0       1212   mf_w.l

    ----------------------------------------------------------------------
      6298        162         64          0          0       3676   Library Totals

    ----------------------------------------------------------------------

==============================================================================


      Code (inc. data)   RO Data    RW Data    ZI Data      Debug   

     22760       1446        560        100   31621532     379875   Grand Totals
     22760       1446        560        100   31621532     379875   ELF Image Totals
     22760       1446        560        100          0          0   ROM Totals

==============================================================================

    Total RO  Size (Code + RO Data)                23320 (  22.77kB)
    Total RW  Size (RW Data + ZI Data)          31621632 (30880.50kB)
    Total ROM Size (Code + RO Data + RW Data)      23420 (  22.87kB)

==============================================================================

